

Microchip MPLAB XC8 Assembler V2.40 build 20220703182018 
                                                                                               Sat Nov 05 14:16:46 2022

Microchip MPLAB XC8 C Compiler v2.40 (Free license) build 20220703182018 Og1 
     1                           	processor	18F4620
     2                           	fnconf	rparam,??,?,0
     3                           	pagewidth 120
     4                           	opt	flic
     5                           	psect	cinit,global,reloc=2,class=CODE,delta=1
     6                           	psect	bssCOMRAM,global,class=COMRAM,space=1,delta=1,lowdata,noexec
     7                           	psect	cstackCOMRAM,global,class=COMRAM,space=1,delta=1,lowdata,noexec
     8                           	psect	text0,global,reloc=2,class=CODE,delta=1
     9                           	psect	text1,global,reloc=2,class=CODE,delta=1,group=1
    10                           	psect	text2,global,reloc=2,class=CODE,delta=1,group=1
    11                           	psect	text3,global,reloc=2,class=CODE,delta=1,group=1
    12                           	psect	text4,global,reloc=2,class=CODE,delta=1,group=1
    13                           	psect	text5,global,reloc=2,class=CODE,delta=1,group=1
    14                           	psect	text6,global,reloc=2,class=CODE,delta=1
    15                           	psect	text7,global,reloc=2,class=CODE,delta=1
    16                           	psect	text8,global,reloc=2,class=CODE,delta=1
    17                           	psect	text9,global,reloc=2,class=CODE,delta=1
    18                           	psect	text10,global,reloc=2,class=CODE,delta=1
    19                           	psect	intsave_regs,global,class=BIGRAM,space=1,delta=1,noexec
    20                           	psect	rparam,global,class=COMRAM,space=1,delta=1,noexec
    21                           	psect	idloc,global,abs,ovrld,class=IDLOC,space=5,delta=1,noexec
    22                           	psect	config,global,abs,ovrld,class=CONFIG,space=4,delta=1,noexec
    23   000000                     
    24                           ; Version 2.20
    25                           ; Generated 12/02/2020 GMT
    26                           ; 
    27                           ; Copyright © 2020, Microchip Technology Inc. and its subsidiaries ("Microchip")
    28                           ; All rights reserved.
    29                           ; 
    30                           ; This software is developed by Microchip Technology Inc. and its subsidiaries ("Microch
      +                          ip").
    31                           ; 
    32                           ; Redistribution and use in source and binary forms, with or without modification, are
    33                           ; permitted provided that the following conditions are met:
    34                           ; 
    35                           ;     1. Redistributions of source code must retain the above copyright notice, this lis
      +                          t of
    36                           ;        conditions and the following disclaimer.
    37                           ; 
    38                           ;     2. Redistributions in binary form must reproduce the above copyright notice, this 
      +                          list
    39                           ;        of conditions and the following disclaimer in the documentation and/or other
    40                           ;        materials provided with the distribution.
    41                           ; 
    42                           ;     3. Microchip's name may not be used to endorse or promote products derived from th
      +                          is
    43                           ;        software without specific prior written permission.
    44                           ; 
    45                           ; THIS SOFTWARE IS PROVIDED BY MICROCHIP "AS IS" AND ANY EXPRESS OR IMPLIED WARRANTIES,
    46                           ; INCLUDING, BUT NOT LIMITED TO, THE IMPLIED WARRANTIES OF MERCHANTABILITY AND FITNESS F
      +                          OR
    47                           ; PURPOSE ARE DISCLAIMED.  IN NO EVENT SHALL MICROCHIP BE LIABLE FOR ANY DIRECT, INDIREC
      +                          T,
    48                           ; INCIDENTAL, SPECIAL, EXEMPLARY, OR CONSEQUENTIAL DAMAGES (INCLUDING BUT NOT LIMITED TO
    49                           ; PROCUREMENT OF SUBSTITUTE GOODS OR SERVICES; LOSS OF USE, DATA OR PROFITS; OR BUSINESS
    50                           ; INTERRUPTION) HOWSOEVER CAUSED AND ON ANY THEORY OF LIABILITY, WHETHER IN CONTRACT, ST
      +                          RICT
    51                           ; LIABILITY, OR TORT (INCLUDING NEGLIGENCE OR OTHERWISE) ARISING IN ANY WAY OUT OF THE U
      +                          SE OF
    52                           ; THIS SOFTWARE, EVEN IF ADVISED OF THE POSSIBILITY OF SUCH DAMAGE.
    53                           ; 
    54                           ; 
    55                           ; Code-generator required, PIC18F4620 Definitions
    56                           ; 
    57                           ; SFR Addresses
    58   000000                     _ADRESL	set	4035
    59   000000                     _ADRESH	set	4036
    60   000000                     _ADCON0	set	4034
    61   000000                     _PORTE	set	3972
    62   000000                     _PORTD	set	3971
    63   000000                     _PORTC	set	3970
    64   000000                     _PORTB	set	3969
    65   000000                     _PORTA	set	3968
    66   000000                     _TRISA	set	3986
    67   000000                     _ADCON1	set	4033
    68   000000                     _TRISE	set	3990
    69   000000                     _TRISD	set	3989
    70   000000                     _TRISC	set	3988
    71   000000                     _TRISB	set	3987
    72   000000                     _ADCON2	set	4032
    73                           
    74                           ; #config settings
    75                           
    76                           	psect	cinit
    77   00EC60                     __pcinit:
    78                           	callstack 0
    79   00EC60                     start_initialization:
    80                           	callstack 0
    81   00EC60                     __initialization:
    82                           	callstack 0
    83                           
    84                           ; Clear objects allocated to COMRAM (40 bytes)
    85   00EC60  EE00  F055         	lfsr	0,__pbssCOMRAM
    86   00EC64  0E28               	movlw	40
    87   00EC66                     clear_0:
    88   00EC66  6AEE               	clrf	postinc0,c
    89   00EC68  06E8               	decf	wreg,f,c
    90   00EC6A  E1FD               	bnz	clear_0
    91   00EC6C                     end_of_initialization:
    92                           	callstack 0
    93   00EC6C                     __end_of__initialization:
    94                           	callstack 0
    95   00EC6C  0E00               	movlw	low (__Lmediumconst shr (0+16))
    96   00EC6E  6EF8               	movwf	tblptru,c
    97   00EC70  0100               	movlb	0
    98   00EC72  EF14  F077         	goto	_main	;jump to C main() function
    99                           
   100                           	psect	bssCOMRAM
   101   000055                     __pbssCOMRAM:
   102                           	callstack 0
   103   000055                     _PORT_E_DEF:
   104                           	callstack 0
   105   000055                     	ds	8
   106   00005D                     _PORT_D_DEF:
   107                           	callstack 0
   108   00005D                     	ds	8
   109   000065                     _PORT_C_DEF:
   110                           	callstack 0
   111   000065                     	ds	8
   112   00006D                     _PORT_B_DEF:
   113                           	callstack 0
   114   00006D                     	ds	8
   115   000075                     _PORT_A_DEF:
   116                           	callstack 0
   117   000075                     	ds	8
   118                           
   119                           	psect	cstackCOMRAM
   120   000001                     __pcstackCOMRAM:
   121                           	callstack 0
   122   000001                     ?_ADC_u16GetChannelReading:
   123                           	callstack 0
   124   000001                     ?___wmul:
   125                           	callstack 0
   126   000001                     DIO_VidSetPinValue@u8PinIdCopy:
   127                           	callstack 0
   128   000001                     DIO_VidSetHalfPortDirection@u8PortHalf:
   129                           	callstack 0
   130   000001                     DIO_VidDirPortNibble@u8StPin:
   131                           	callstack 0
   132   000001                     ___wmul@multiplier:
   133                           	callstack 0
   134                           
   135                           ; 2 bytes @ 0x0
   136   000001                     	ds	1
   137   000002                     DIO_VidSetPinValue@u8PinValCopy:
   138                           	callstack 0
   139   000002                     DIO_VidSetHalfPortDirection@u8PortDir:
   140                           	callstack 0
   141   000002                     DIO_VidDirPortNibble@u8PortDir:
   142                           	callstack 0
   143                           
   144                           ; 1 bytes @ 0x1
   145   000002                     	ds	1
   146   000003                     ??_DIO_VidDirPortNibble:
   147   000003                     ??_DIO_VidSetHalfPortDirection:
   148   000003                     ??_ADC_u16GetChannelReading:
   149   000003                     ??_DIO_VidSetPinValue:
   150   000003                     ___wmul@multiplicand:
   151                           	callstack 0
   152                           
   153                           ; 2 bytes @ 0x2
   154   000003                     	ds	2
   155   000005                     DIO_VidSetPinValue@u8PortIdCopy:
   156                           	callstack 0
   157   000005                     ADC_u16GetChannelReading@Channel:
   158                           	callstack 0
   159   000005                     ___wmul@product:
   160                           	callstack 0
   161                           
   162                           ; 2 bytes @ 0x4
   163   000005                     	ds	1
   164   000006                     ADC_u16GetChannelReading@u16ReadingReturn:
   165                           	callstack 0
   166                           
   167                           ; 2 bytes @ 0x5
   168   000006                     	ds	1
   169   000007                     ?___xxtofl:
   170                           	callstack 0
   171   000007                     ___xxtofl@val:
   172                           	callstack 0
   173                           
   174                           ; 4 bytes @ 0x6
   175   000007                     	ds	1
   176   000008                     DIO_VidDirPortNibble@u8PortId:
   177                           	callstack 0
   178                           
   179                           ; 1 bytes @ 0x7
   180   000008                     	ds	1
   181   000009                     DIO_VidDirPortNibble@u8PinIdCopy:
   182                           	callstack 0
   183                           
   184                           ; 1 bytes @ 0x8
   185   000009                     	ds	1
   186   00000A                     DIO_VidSetHalfPortDirection@u8PortId:
   187                           	callstack 0
   188                           
   189                           ; 1 bytes @ 0x9
   190   00000A                     	ds	1
   191   00000B                     ??___xxtofl:
   192   00000B                     DIO_VidSetHalfPortDirection@u8PinIdCopy:
   193                           	callstack 0
   194                           
   195                           ; 1 bytes @ 0xA
   196   00000B                     	ds	4
   197   00000F                     ___xxtofl@sign:
   198                           	callstack 0
   199                           
   200                           ; 1 bytes @ 0xE
   201   00000F                     	ds	1
   202   000010                     ___xxtofl@exp:
   203                           	callstack 0
   204                           
   205                           ; 1 bytes @ 0xF
   206   000010                     	ds	1
   207   000011                     ___xxtofl@arg:
   208                           	callstack 0
   209                           
   210                           ; 4 bytes @ 0x10
   211   000011                     	ds	4
   212   000015                     ?___fldiv:
   213                           	callstack 0
   214   000015                     ___fldiv@b:
   215                           	callstack 0
   216                           
   217                           ; 4 bytes @ 0x14
   218   000015                     	ds	4
   219   000019                     ___fldiv@a:
   220                           	callstack 0
   221                           
   222                           ; 4 bytes @ 0x18
   223   000019                     	ds	4
   224   00001D                     ??___fldiv:
   225                           
   226                           ; 1 bytes @ 0x1C
   227   00001D                     	ds	4
   228   000021                     ___fldiv@rem:
   229                           	callstack 0
   230                           
   231                           ; 4 bytes @ 0x20
   232   000021                     	ds	4
   233   000025                     ___fldiv@sign:
   234                           	callstack 0
   235                           
   236                           ; 1 bytes @ 0x24
   237   000025                     	ds	1
   238   000026                     ___fldiv@new_exp:
   239                           	callstack 0
   240                           
   241                           ; 2 bytes @ 0x25
   242   000026                     	ds	2
   243   000028                     ___fldiv@grs:
   244                           	callstack 0
   245                           
   246                           ; 4 bytes @ 0x27
   247   000028                     	ds	4
   248   00002C                     ___fldiv@bexp:
   249                           	callstack 0
   250                           
   251                           ; 1 bytes @ 0x2B
   252   00002C                     	ds	1
   253   00002D                     ___fldiv@aexp:
   254                           	callstack 0
   255                           
   256                           ; 1 bytes @ 0x2C
   257   00002D                     	ds	1
   258   00002E                     ?___flmul:
   259                           	callstack 0
   260   00002E                     ___flmul@b:
   261                           	callstack 0
   262                           
   263                           ; 4 bytes @ 0x2D
   264   00002E                     	ds	4
   265   000032                     ___flmul@a:
   266                           	callstack 0
   267                           
   268                           ; 4 bytes @ 0x31
   269   000032                     	ds	4
   270   000036                     ??___flmul:
   271                           
   272                           ; 1 bytes @ 0x35
   273   000036                     	ds	4
   274   00003A                     ___flmul@sign:
   275                           	callstack 0
   276                           
   277                           ; 1 bytes @ 0x39
   278   00003A                     	ds	1
   279   00003B                     ___flmul@grs:
   280                           	callstack 0
   281                           
   282                           ; 4 bytes @ 0x3A
   283   00003B                     	ds	4
   284   00003F                     ___flmul@aexp:
   285                           	callstack 0
   286                           
   287                           ; 1 bytes @ 0x3E
   288   00003F                     	ds	1
   289   000040                     ___flmul@bexp:
   290                           	callstack 0
   291                           
   292                           ; 1 bytes @ 0x3F
   293   000040                     	ds	1
   294   000041                     ___flmul@prod:
   295                           	callstack 0
   296                           
   297                           ; 4 bytes @ 0x40
   298   000041                     	ds	4
   299   000045                     ___flmul@temp:
   300                           	callstack 0
   301                           
   302                           ; 2 bytes @ 0x44
   303   000045                     	ds	2
   304   000047                     ?___fltol:
   305                           	callstack 0
   306   000047                     ___fltol@f1:
   307                           	callstack 0
   308                           
   309                           ; 4 bytes @ 0x46
   310   000047                     	ds	4
   311   00004B                     ??___fltol:
   312                           
   313                           ; 1 bytes @ 0x4A
   314   00004B                     	ds	4
   315   00004F                     ___fltol@sign1:
   316                           	callstack 0
   317                           
   318                           ; 1 bytes @ 0x4E
   319   00004F                     	ds	1
   320   000050                     ___fltol@exp1:
   321                           	callstack 0
   322                           
   323                           ; 1 bytes @ 0x4F
   324   000050                     	ds	1
   325   000051                     main@adc_value:
   326                           	callstack 0
   327                           
   328                           ; 2 bytes @ 0x50
   329   000051                     	ds	2
   330   000053                     main@temp:
   331                           	callstack 0
   332                           
   333                           ; 2 bytes @ 0x52
   334   000053                     	ds	2
   335                           
   336 ;;
   337 ;;Main: autosize = 0, tempsize = 0, incstack = 0, save=0
   338 ;;
   339 ;; *************** function _main *****************
   340 ;; Defined at:
   341 ;;		line 25 in file "01_APP/newmain.c"
   342 ;; Parameters:    Size  Location     Type
   343 ;;		None
   344 ;; Auto vars:     Size  Location     Type
   345 ;;  temp            2   82[COMRAM] unsigned int 
   346 ;;  adc_value       2   80[COMRAM] unsigned int 
   347 ;; Return value:  Size  Location     Type
   348 ;;                  1    wreg      void 
   349 ;; Registers used:
   350 ;;		wreg, status,2, status,0, prodl, prodh, cstack
   351 ;; Tracked objects:
   352 ;;		On entry : 0/0
   353 ;;		On exit  : 0/0
   354 ;;		Unchanged: 0/0
   355 ;; Data sizes:     COMRAM   BANK0   BANK1   BANK2   BANK3   BANK4   BANK5   BANK6   BANK7   BANK8   BANK9  BANK10  BANK1
      +1  BANK12  BANK13  BANK14  BANK15
   356 ;;      Params:         0       0       0       0       0       0       0       0       0       0       0       0       
      +0       0       0       0       0
   357 ;;      Locals:         4       0       0       0       0       0       0       0       0       0       0       0       
      +0       0       0       0       0
   358 ;;      Temps:          0       0       0       0       0       0       0       0       0       0       0       0       
      +0       0       0       0       0
   359 ;;      Totals:         4       0       0       0       0       0       0       0       0       0       0       0       
      +0       0       0       0       0
   360 ;;Total ram usage:        4 bytes
   361 ;; Hardware stack levels required when called: 1
   362 ;; This function calls:
   363 ;;		_ADC_VoidInit
   364 ;;		_ADC_u16GetChannelReading
   365 ;;		_DIO_VidDirPortNibble
   366 ;;		_DIO_VidSetHalfPortDirection
   367 ;;		_DIO_VidSetPinValue
   368 ;;		___fldiv
   369 ;;		___flmul
   370 ;;		___fltol
   371 ;;		___wmul
   372 ;;		___xxtofl
   373 ;; This function is called by:
   374 ;;		Startup code after reset
   375 ;; This function uses a non-reentrant model
   376 ;;
   377                           
   378                           	psect	text0
   379   00EE28                     __ptext0:
   380                           	callstack 0
   381   00EE28                     _main:
   382                           	callstack 30
   383   00EE28  0E02               	movlw	2
   384   00EE2A  6E01               	movwf	DIO_VidDirPortNibble@u8StPin^0,c
   385   00EE2C  0E00               	movlw	0
   386   00EE2E  6E02               	movwf	DIO_VidDirPortNibble@u8PortDir^0,c
   387   00EE30  0E02               	movlw	2
   388   00EE32  EC8B  F079         	call	_DIO_VidDirPortNibble
   389   00EE36  0E01               	movlw	1
   390   00EE38  6E01               	movwf	DIO_VidSetHalfPortDirection@u8PortHalf^0,c
   391   00EE3A  0E01               	movlw	1
   392   00EE3C  6E02               	movwf	DIO_VidSetHalfPortDirection@u8PortDir^0,c
   393   00EE3E  0E00               	movlw	0
   394   00EE40  ECD3  F07A         	call	_DIO_VidSetHalfPortDirection
   395   00EE44  EC3B  F076         	call	_ADC_VoidInit	;wreg free
   396   00EE48                     l25:
   397   00EE48  0E00               	movlw	0
   398   00EE4A  EC5F  F076         	call	_ADC_u16GetChannelReading
   399   00EE4E  C001  F051         	movff	?_ADC_u16GetChannelReading,main@adc_value
   400   00EE52  C002  F052         	movff	?_ADC_u16GetChannelReading+1,main@adc_value+1
   401   00EE56  0E00               	movlw	0
   402   00EE58  6E32               	movwf	___flmul@a^0,c
   403   00EE5A  0E00               	movlw	0
   404   00EE5C  6E33               	movwf	(___flmul@a+1)^0,c
   405   00EE5E  0EC8               	movlw	200
   406   00EE60  6E34               	movwf	(___flmul@a+2)^0,c
   407   00EE62  0E42               	movlw	66
   408   00EE64  6E35               	movwf	(___flmul@a+3)^0,c
   409   00EE66  0E00               	movlw	0
   410   00EE68  6E19               	movwf	___fldiv@a^0,c
   411   00EE6A  0EC0               	movlw	192
   412   00EE6C  6E1A               	movwf	(___fldiv@a+1)^0,c
   413   00EE6E  0E7F               	movlw	127
   414   00EE70  6E1B               	movwf	(___fldiv@a+2)^0,c
   415   00EE72  0E44               	movlw	68
   416   00EE74  6E1C               	movwf	(___fldiv@a+3)^0,c
   417   00EE76  C051  F001         	movff	main@adc_value,___wmul@multiplier
   418   00EE7A  C052  F002         	movff	main@adc_value+1,___wmul@multiplier+1
   419   00EE7E  0E00               	movlw	0
   420   00EE80  6E04               	movwf	(___wmul@multiplicand+1)^0,c
   421   00EE82  0E05               	movlw	5
   422   00EE84  6E03               	movwf	___wmul@multiplicand^0,c
   423   00EE86  EC4C  F076         	call	___wmul	;wreg free
   424   00EE8A  C001  F007         	movff	?___wmul,___xxtofl@val
   425   00EE8E  C002  F008         	movff	?___wmul+1,___xxtofl@val+1
   426   00EE92  6A09               	clrf	(___xxtofl@val+2)^0,c
   427   00EE94  6A0A               	clrf	(___xxtofl@val+3)^0,c
   428   00EE96  0E00               	movlw	0
   429   00EE98  ECA4  F077         	call	___xxtofl
   430   00EE9C  C007  F015         	movff	?___xxtofl,___fldiv@b
   431   00EEA0  C008  F016         	movff	?___xxtofl+1,___fldiv@b+1
   432   00EEA4  C009  F017         	movff	?___xxtofl+2,___fldiv@b+2
   433   00EEA8  C00A  F018         	movff	?___xxtofl+3,___fldiv@b+3
   434   00EEAC  EC1E  F07C         	call	___fldiv	;wreg free
   435   00EEB0  C015  F02E         	movff	?___fldiv,___flmul@b
   436   00EEB4  C016  F02F         	movff	?___fldiv+1,___flmul@b+1
   437   00EEB8  C017  F030         	movff	?___fldiv+2,___flmul@b+2
   438   00EEBC  C018  F031         	movff	?___fldiv+3,___flmul@b+3
   439   00EEC0  ECEB  F07D         	call	___flmul	;wreg free
   440   00EEC4  C02E  F047         	movff	?___flmul,___fltol@f1
   441   00EEC8  C02F  F048         	movff	?___flmul+1,___fltol@f1+1
   442   00EECC  C030  F049         	movff	?___flmul+2,___fltol@f1+2
   443   00EED0  C031  F04A         	movff	?___flmul+3,___fltol@f1+3
   444   00EED4  EC91  F076         	call	___fltol	;wreg free
   445   00EED8  C047  F053         	movff	?___fltol,main@temp
   446   00EEDC  C048  F054         	movff	?___fltol+1,main@temp+1
   447   00EEE0  0E02               	movlw	2
   448   00EEE2  6E01               	movwf	DIO_VidSetPinValue@u8PinIdCopy^0,c
   449   00EEE4  0E01               	movlw	1
   450   00EEE6  6E02               	movwf	DIO_VidSetPinValue@u8PinValCopy^0,c
   451   00EEE8  0E02               	movlw	2
   452   00EEEA  EC7E  F078         	call	_DIO_VidSetPinValue
   453   00EEEE  0E03               	movlw	3
   454   00EEF0  6E01               	movwf	DIO_VidSetPinValue@u8PinIdCopy^0,c
   455   00EEF2  0E01               	movlw	1
   456   00EEF4  6E02               	movwf	DIO_VidSetPinValue@u8PinValCopy^0,c
   457   00EEF6  0E02               	movlw	2
   458   00EEF8  EC7E  F078         	call	_DIO_VidSetPinValue
   459   00EEFC  0E04               	movlw	4
   460   00EEFE  6E01               	movwf	DIO_VidSetPinValue@u8PinIdCopy^0,c
   461   00EF00  0E01               	movlw	1
   462   00EF02  6E02               	movwf	DIO_VidSetPinValue@u8PinValCopy^0,c
   463   00EF04  0E02               	movlw	2
   464   00EF06  EC7E  F078         	call	_DIO_VidSetPinValue
   465   00EF0A  5054               	movf	(main@temp+1)^0,w,c
   466   00EF0C  E109               	bnz	u3260
   467   00EF0E  0E1E               	movlw	30
   468   00EF10  5C53               	subwf	main@temp^0,w,c
   469   00EF12  A0D8               	btfss	status,0,c
   470   00EF14  EF8E  F077         	goto	u3261
   471   00EF18  EF90  F077         	goto	u3260
   472   00EF1C                     u3261:
   473   00EF1C  EF99  F077         	goto	l2642
   474   00EF20                     u3260:
   475   00EF20  0E05               	movlw	5
   476   00EF22  6E01               	movwf	DIO_VidSetPinValue@u8PinIdCopy^0,c
   477   00EF24  0E01               	movlw	1
   478   00EF26  6E02               	movwf	DIO_VidSetPinValue@u8PinValCopy^0,c
   479   00EF28  0E02               	movlw	2
   480   00EF2A  EC7E  F078         	call	_DIO_VidSetPinValue
   481   00EF2E  EF24  F077         	goto	l25
   482   00EF32                     l2642:
   483   00EF32  0E05               	movlw	5
   484   00EF34  6E01               	movwf	DIO_VidSetPinValue@u8PinIdCopy^0,c
   485   00EF36  0E00               	movlw	0
   486   00EF38  6E02               	movwf	DIO_VidSetPinValue@u8PinValCopy^0,c
   487   00EF3A  0E02               	movlw	2
   488   00EF3C  EC7E  F078         	call	_DIO_VidSetPinValue
   489   00EF40  EF24  F077         	goto	l25
   490   00EF44  EF00  F000         	goto	start
   491   00EF48                     __end_of_main:
   492                           	callstack 0
   493                           
   494 ;; *************** function ___xxtofl *****************
   495 ;; Defined at:
   496 ;;		line 10 in file "C:\Program Files\Microchip\xc8\v2.40\pic\sources\c99\common\xxtofl.c"
   497 ;; Parameters:    Size  Location     Type
   498 ;;  sign            1    wreg     unsigned char 
   499 ;;  val             4    6[COMRAM] long 
   500 ;; Auto vars:     Size  Location     Type
   501 ;;  sign            1   14[COMRAM] unsigned char 
   502 ;;  arg             4   16[COMRAM] unsigned long 
   503 ;;  exp             1   15[COMRAM] unsigned char 
   504 ;; Return value:  Size  Location     Type
   505 ;;                  4    6[COMRAM] unsigned char 
   506 ;; Registers used:
   507 ;;		wreg, status,2, status,0
   508 ;; Tracked objects:
   509 ;;		On entry : 0/0
   510 ;;		On exit  : 0/0
   511 ;;		Unchanged: 0/0
   512 ;; Data sizes:     COMRAM   BANK0   BANK1   BANK2   BANK3   BANK4   BANK5   BANK6   BANK7   BANK8   BANK9  BANK10  BANK1
      +1  BANK12  BANK13  BANK14  BANK15
   513 ;;      Params:         4       0       0       0       0       0       0       0       0       0       0       0       
      +0       0       0       0       0
   514 ;;      Locals:         6       0       0       0       0       0       0       0       0       0       0       0       
      +0       0       0       0       0
   515 ;;      Temps:          4       0       0       0       0       0       0       0       0       0       0       0       
      +0       0       0       0       0
   516 ;;      Totals:        14       0       0       0       0       0       0       0       0       0       0       0       
      +0       0       0       0       0
   517 ;;Total ram usage:       14 bytes
   518 ;; Hardware stack levels used: 1
   519 ;; This function calls:
   520 ;;		Nothing
   521 ;; This function is called by:
   522 ;;		_main
   523 ;; This function uses a non-reentrant model
   524 ;;
   525                           
   526                           	psect	text1
   527   00EF48                     __ptext1:
   528                           	callstack 0
   529   00EF48                     ___xxtofl:
   530                           	callstack 30
   531                           
   532                           ;incstack = 0
   533                           ;___xxtofl@sign stored from wreg
   534   00EF48  6E0F               	movwf	___xxtofl@sign^0,c
   535   00EF4A  500F               	movf	___xxtofl@sign^0,w,c
   536   00EF4C  B4D8               	btfsc	status,2,c
   537   00EF4E  EFAB  F077         	goto	u3161
   538   00EF52  EFAD  F077         	goto	u3160
   539   00EF56                     u3161:
   540   00EF56  EFCF  F077         	goto	l1022
   541   00EF5A                     u3160:
   542   00EF5A  BE0A               	btfsc	(___xxtofl@val+3)^0,7,c
   543   00EF5C  EFB4  F077         	goto	u3170
   544   00EF60  EFB2  F077         	goto	u3171
   545   00EF64                     u3171:
   546   00EF64  EFCF  F077         	goto	l1022
   547   00EF68                     u3170:
   548   00EF68  C007  F00B         	movff	___xxtofl@val,??___xxtofl
   549   00EF6C  C008  F00C         	movff	___xxtofl@val+1,??___xxtofl+1
   550   00EF70  C009  F00D         	movff	___xxtofl@val+2,??___xxtofl+2
   551   00EF74  C00A  F00E         	movff	___xxtofl@val+3,??___xxtofl+3
   552   00EF78  1E0B               	comf	??___xxtofl^0,f,c
   553   00EF7A  1E0C               	comf	(??___xxtofl+1)^0,f,c
   554   00EF7C  1E0D               	comf	(??___xxtofl+2)^0,f,c
   555   00EF7E  1E0E               	comf	(??___xxtofl+3)^0,f,c
   556   00EF80  2A0B               	incf	??___xxtofl^0,f,c
   557   00EF82  0E00               	movlw	0
   558   00EF84  220C               	addwfc	(??___xxtofl+1)^0,f,c
   559   00EF86  220D               	addwfc	(??___xxtofl+2)^0,f,c
   560   00EF88  220E               	addwfc	(??___xxtofl+3)^0,f,c
   561   00EF8A  C00B  F011         	movff	??___xxtofl,___xxtofl@arg
   562   00EF8E  C00C  F012         	movff	??___xxtofl+1,___xxtofl@arg+1
   563   00EF92  C00D  F013         	movff	??___xxtofl+2,___xxtofl@arg+2
   564   00EF96  C00E  F014         	movff	??___xxtofl+3,___xxtofl@arg+3
   565   00EF9A  EFD7  F077         	goto	l2586
   566   00EF9E                     l1022:
   567   00EF9E  C007  F011         	movff	___xxtofl@val,___xxtofl@arg
   568   00EFA2  C008  F012         	movff	___xxtofl@val+1,___xxtofl@arg+1
   569   00EFA6  C009  F013         	movff	___xxtofl@val+2,___xxtofl@arg+2
   570   00EFAA  C00A  F014         	movff	___xxtofl@val+3,___xxtofl@arg+3
   571   00EFAE                     l2586:
   572   00EFAE  5007               	movf	___xxtofl@val^0,w,c
   573   00EFB0  1008               	iorwf	(___xxtofl@val+1)^0,w,c
   574   00EFB2  1009               	iorwf	(___xxtofl@val+2)^0,w,c
   575   00EFB4  100A               	iorwf	(___xxtofl@val+3)^0,w,c
   576   00EFB6  A4D8               	btfss	status,2,c
   577   00EFB8  EFE0  F077         	goto	u3181
   578   00EFBC  EFE2  F077         	goto	u3180
   579   00EFC0                     u3181:
   580   00EFC0  EFEC  F077         	goto	l2592
   581   00EFC4                     u3180:
   582   00EFC4  0E00               	movlw	0
   583   00EFC6  6E07               	movwf	?___xxtofl^0,c
   584   00EFC8  0E00               	movlw	0
   585   00EFCA  6E08               	movwf	(?___xxtofl+1)^0,c
   586   00EFCC  0E00               	movlw	0
   587   00EFCE  6E09               	movwf	(?___xxtofl+2)^0,c
   588   00EFD0  0E00               	movlw	0
   589   00EFD2  6E0A               	movwf	(?___xxtofl+3)^0,c
   590   00EFD4  EF7D  F078         	goto	l1025
   591   00EFD8                     l2592:
   592   00EFD8  0E96               	movlw	150
   593   00EFDA  6E10               	movwf	___xxtofl@exp^0,c
   594   00EFDC  EFF6  F077         	goto	l2596
   595   00EFE0                     l2594:
   596   00EFE0  2A10               	incf	___xxtofl@exp^0,f,c
   597   00EFE2  90D8               	bcf	status,0,c
   598   00EFE4  3214               	rrcf	(___xxtofl@arg+3)^0,f,c
   599   00EFE6  3213               	rrcf	(___xxtofl@arg+2)^0,f,c
   600   00EFE8  3212               	rrcf	(___xxtofl@arg+1)^0,f,c
   601   00EFEA  3211               	rrcf	___xxtofl@arg^0,f,c
   602   00EFEC                     l2596:
   603   00EFEC  0E00               	movlw	0
   604   00EFEE  1411               	andwf	___xxtofl@arg^0,w,c
   605   00EFF0  6E0B               	movwf	??___xxtofl^0,c
   606   00EFF2  0E00               	movlw	0
   607   00EFF4  1412               	andwf	(___xxtofl@arg+1)^0,w,c
   608   00EFF6  6E0C               	movwf	(??___xxtofl+1)^0,c
   609   00EFF8  0E00               	movlw	0
   610   00EFFA  1413               	andwf	(___xxtofl@arg+2)^0,w,c
   611   00EFFC  6E0D               	movwf	(??___xxtofl+2)^0,c
   612   00EFFE  0EFE               	movlw	254
   613   00F000  1414               	andwf	(___xxtofl@arg+3)^0,w,c
   614   00F002  6E0E               	movwf	(??___xxtofl+3)^0,c
   615   00F004  500B               	movf	??___xxtofl^0,w,c
   616   00F006  100C               	iorwf	(??___xxtofl+1)^0,w,c
   617   00F008  100D               	iorwf	(??___xxtofl+2)^0,w,c
   618   00F00A  100E               	iorwf	(??___xxtofl+3)^0,w,c
   619   00F00C  A4D8               	btfss	status,2,c
   620   00F00E  EF0B  F078         	goto	u3191
   621   00F012  EF0D  F078         	goto	u3190
   622   00F016                     u3191:
   623   00F016  EFF0  F077         	goto	l2594
   624   00F01A                     u3190:
   625   00F01A  EF1B  F078         	goto	l1029
   626   00F01E                     l2598:
   627   00F01E  2A10               	incf	___xxtofl@exp^0,f,c
   628   00F020  0E01               	movlw	1
   629   00F022  2611               	addwf	___xxtofl@arg^0,f,c
   630   00F024  0E00               	movlw	0
   631   00F026  2212               	addwfc	(___xxtofl@arg+1)^0,f,c
   632   00F028  2213               	addwfc	(___xxtofl@arg+2)^0,f,c
   633   00F02A  2214               	addwfc	(___xxtofl@arg+3)^0,f,c
   634   00F02C  90D8               	bcf	status,0,c
   635   00F02E  3214               	rrcf	(___xxtofl@arg+3)^0,f,c
   636   00F030  3213               	rrcf	(___xxtofl@arg+2)^0,f,c
   637   00F032  3212               	rrcf	(___xxtofl@arg+1)^0,f,c
   638   00F034  3211               	rrcf	___xxtofl@arg^0,f,c
   639   00F036                     l1029:
   640   00F036  0E00               	movlw	0
   641   00F038  1411               	andwf	___xxtofl@arg^0,w,c
   642   00F03A  6E0B               	movwf	??___xxtofl^0,c
   643   00F03C  0E00               	movlw	0
   644   00F03E  1412               	andwf	(___xxtofl@arg+1)^0,w,c
   645   00F040  6E0C               	movwf	(??___xxtofl+1)^0,c
   646   00F042  0E00               	movlw	0
   647   00F044  1413               	andwf	(___xxtofl@arg+2)^0,w,c
   648   00F046  6E0D               	movwf	(??___xxtofl+2)^0,c
   649   00F048  0EFF               	movlw	255
   650   00F04A  1414               	andwf	(___xxtofl@arg+3)^0,w,c
   651   00F04C  6E0E               	movwf	(??___xxtofl+3)^0,c
   652   00F04E  500B               	movf	??___xxtofl^0,w,c
   653   00F050  100C               	iorwf	(??___xxtofl+1)^0,w,c
   654   00F052  100D               	iorwf	(??___xxtofl+2)^0,w,c
   655   00F054  100E               	iorwf	(??___xxtofl+3)^0,w,c
   656   00F056  A4D8               	btfss	status,2,c
   657   00F058  EF30  F078         	goto	u3201
   658   00F05C  EF32  F078         	goto	u3200
   659   00F060                     u3201:
   660   00F060  EF0F  F078         	goto	l2598
   661   00F064                     u3200:
   662   00F064  EF3A  F078         	goto	l2606
   663   00F068                     l2604:
   664   00F068  0610               	decf	___xxtofl@exp^0,f,c
   665   00F06A  90D8               	bcf	status,0,c
   666   00F06C  3611               	rlcf	___xxtofl@arg^0,f,c
   667   00F06E  3612               	rlcf	(___xxtofl@arg+1)^0,f,c
   668   00F070  3613               	rlcf	(___xxtofl@arg+2)^0,f,c
   669   00F072  3614               	rlcf	(___xxtofl@arg+3)^0,f,c
   670   00F074                     l2606:
   671   00F074  BE13               	btfsc	(___xxtofl@arg+2)^0,7,c
   672   00F076  EF3F  F078         	goto	u3211
   673   00F07A  EF41  F078         	goto	u3210
   674   00F07E                     u3211:
   675   00F07E  EF49  F078         	goto	l1036
   676   00F082                     u3210:
   677   00F082  0E02               	movlw	2
   678   00F084  6010               	cpfslt	___xxtofl@exp^0,c
   679   00F086  EF47  F078         	goto	u3221
   680   00F08A  EF49  F078         	goto	u3220
   681   00F08E                     u3221:
   682   00F08E  EF34  F078         	goto	l2604
   683   00F092                     u3220:
   684   00F092                     l1036:
   685   00F092  B010               	btfsc	___xxtofl@exp^0,0,c
   686   00F094  EF4E  F078         	goto	u3231
   687   00F098  EF50  F078         	goto	u3230
   688   00F09C                     u3231:
   689   00F09C  EF51  F078         	goto	l2612
   690   00F0A0                     u3230:
   691   00F0A0  9E13               	bcf	(___xxtofl@arg+2)^0,7,c
   692   00F0A2                     l2612:
   693   00F0A2  90D8               	bcf	status,0,c
   694   00F0A4  3210               	rrcf	___xxtofl@exp^0,f,c
   695   00F0A6  C010  F00B         	movff	___xxtofl@exp,??___xxtofl
   696   00F0AA  6A0C               	clrf	(??___xxtofl+1)^0,c
   697   00F0AC  6A0D               	clrf	(??___xxtofl+2)^0,c
   698   00F0AE  6A0E               	clrf	(??___xxtofl+3)^0,c
   699   00F0B0  C00B  F00E         	movff	??___xxtofl,??___xxtofl+3
   700   00F0B4  6A0D               	clrf	(??___xxtofl+2)^0,c
   701   00F0B6  6A0C               	clrf	(??___xxtofl+1)^0,c
   702   00F0B8  6A0B               	clrf	??___xxtofl^0,c
   703   00F0BA  500B               	movf	??___xxtofl^0,w,c
   704   00F0BC  1211               	iorwf	___xxtofl@arg^0,f,c
   705   00F0BE  500C               	movf	(??___xxtofl+1)^0,w,c
   706   00F0C0  1212               	iorwf	(___xxtofl@arg+1)^0,f,c
   707   00F0C2  500D               	movf	(??___xxtofl+2)^0,w,c
   708   00F0C4  1213               	iorwf	(___xxtofl@arg+2)^0,f,c
   709   00F0C6  500E               	movf	(??___xxtofl+3)^0,w,c
   710   00F0C8  1214               	iorwf	(___xxtofl@arg+3)^0,f,c
   711   00F0CA  500F               	movf	___xxtofl@sign^0,w,c
   712   00F0CC  B4D8               	btfsc	status,2,c
   713   00F0CE  EF6B  F078         	goto	u3241
   714   00F0D2  EF6D  F078         	goto	u3240
   715   00F0D6                     u3241:
   716   00F0D6  EF75  F078         	goto	l2622
   717   00F0DA                     u3240:
   718   00F0DA  BE0A               	btfsc	(___xxtofl@val+3)^0,7,c
   719   00F0DC  EF74  F078         	goto	u3250
   720   00F0E0  EF72  F078         	goto	u3251
   721   00F0E4                     u3251:
   722   00F0E4  EF75  F078         	goto	l2622
   723   00F0E8                     u3250:
   724   00F0E8  8E14               	bsf	(___xxtofl@arg+3)^0,7,c
   725   00F0EA                     l2622:
   726   00F0EA  C011  F007         	movff	___xxtofl@arg,?___xxtofl
   727   00F0EE  C012  F008         	movff	___xxtofl@arg+1,?___xxtofl+1
   728   00F0F2  C013  F009         	movff	___xxtofl@arg+2,?___xxtofl+2
   729   00F0F6  C014  F00A         	movff	___xxtofl@arg+3,?___xxtofl+3
   730   00F0FA                     l1025:
   731   00F0FA  0012               	return		;funcret
   732   00F0FC                     __end_of___xxtofl:
   733                           	callstack 0
   734                           
   735 ;; *************** function ___wmul *****************
   736 ;; Defined at:
   737 ;;		line 15 in file "C:\Program Files\Microchip\xc8\v2.40\pic\sources\c99\common\Umul16.c"
   738 ;; Parameters:    Size  Location     Type
   739 ;;  multiplier      2    0[COMRAM] unsigned int 
   740 ;;  multiplicand    2    2[COMRAM] unsigned int 
   741 ;; Auto vars:     Size  Location     Type
   742 ;;  product         2    4[COMRAM] unsigned int 
   743 ;; Return value:  Size  Location     Type
   744 ;;                  2    0[COMRAM] unsigned int 
   745 ;; Registers used:
   746 ;;		wreg, status,2, status,0, prodl, prodh
   747 ;; Tracked objects:
   748 ;;		On entry : 0/0
   749 ;;		On exit  : 0/0
   750 ;;		Unchanged: 0/0
   751 ;; Data sizes:     COMRAM   BANK0   BANK1   BANK2   BANK3   BANK4   BANK5   BANK6   BANK7   BANK8   BANK9  BANK10  BANK1
      +1  BANK12  BANK13  BANK14  BANK15
   752 ;;      Params:         4       0       0       0       0       0       0       0       0       0       0       0       
      +0       0       0       0       0
   753 ;;      Locals:         2       0       0       0       0       0       0       0       0       0       0       0       
      +0       0       0       0       0
   754 ;;      Temps:          0       0       0       0       0       0       0       0       0       0       0       0       
      +0       0       0       0       0
   755 ;;      Totals:         6       0       0       0       0       0       0       0       0       0       0       0       
      +0       0       0       0       0
   756 ;;Total ram usage:        6 bytes
   757 ;; Hardware stack levels used: 1
   758 ;; This function calls:
   759 ;;		Nothing
   760 ;; This function is called by:
   761 ;;		_main
   762 ;; This function uses a non-reentrant model
   763 ;;
   764                           
   765                           	psect	text2
   766   00EC98                     __ptext2:
   767                           	callstack 0
   768   00EC98                     ___wmul:
   769                           	callstack 30
   770   00EC98  5001               	movf	___wmul@multiplier^0,w,c
   771   00EC9A  0203               	mulwf	___wmul@multiplicand^0,c
   772   00EC9C  CFF3 F005          	movff	prodl,___wmul@product
   773   00ECA0  CFF4 F006          	movff	prodh,___wmul@product+1
   774   00ECA4  5001               	movf	___wmul@multiplier^0,w,c
   775   00ECA6  0204               	mulwf	(___wmul@multiplicand+1)^0,c
   776   00ECA8  50F3               	movf	243,w,c
   777   00ECAA  2606               	addwf	(___wmul@product+1)^0,f,c
   778   00ECAC  5002               	movf	(___wmul@multiplier+1)^0,w,c
   779   00ECAE  0203               	mulwf	___wmul@multiplicand^0,c
   780   00ECB0  50F3               	movf	243,w,c
   781   00ECB2  2606               	addwf	(___wmul@product+1)^0,f,c
   782   00ECB4  C005  F001         	movff	___wmul@product,?___wmul
   783   00ECB8  C006  F002         	movff	___wmul@product+1,?___wmul+1
   784   00ECBC  0012               	return		;funcret
   785   00ECBE                     __end_of___wmul:
   786                           	callstack 0
   787                           
   788 ;; *************** function ___fltol *****************
   789 ;; Defined at:
   790 ;;		line 43 in file "C:\Program Files\Microchip\xc8\v2.40\pic\sources\c99\common\fltol.c"
   791 ;; Parameters:    Size  Location     Type
   792 ;;  f1              4   70[COMRAM] unsigned int 
   793 ;; Auto vars:     Size  Location     Type
   794 ;;  exp1            1   79[COMRAM] unsigned char 
   795 ;;  sign1           1   78[COMRAM] unsigned char 
   796 ;; Return value:  Size  Location     Type
   797 ;;                  4   70[COMRAM] long 
   798 ;; Registers used:
   799 ;;		wreg, status,2, status,0
   800 ;; Tracked objects:
   801 ;;		On entry : 0/0
   802 ;;		On exit  : 0/0
   803 ;;		Unchanged: 0/0
   804 ;; Data sizes:     COMRAM   BANK0   BANK1   BANK2   BANK3   BANK4   BANK5   BANK6   BANK7   BANK8   BANK9  BANK10  BANK1
      +1  BANK12  BANK13  BANK14  BANK15
   805 ;;      Params:         4       0       0       0       0       0       0       0       0       0       0       0       
      +0       0       0       0       0
   806 ;;      Locals:         2       0       0       0       0       0       0       0       0       0       0       0       
      +0       0       0       0       0
   807 ;;      Temps:          4       0       0       0       0       0       0       0       0       0       0       0       
      +0       0       0       0       0
   808 ;;      Totals:        10       0       0       0       0       0       0       0       0       0       0       0       
      +0       0       0       0       0
   809 ;;Total ram usage:       10 bytes
   810 ;; Hardware stack levels used: 1
   811 ;; This function calls:
   812 ;;		Nothing
   813 ;; This function is called by:
   814 ;;		_main
   815 ;; This function uses a non-reentrant model
   816 ;;
   817                           
   818                           	psect	text3
   819   00ED22                     __ptext3:
   820                           	callstack 0
   821   00ED22                     ___fltol:
   822                           	callstack 30
   823   00ED22  3449               	rlcf	(___fltol@f1+2)^0,w,c
   824   00ED24  344A               	rlcf	(___fltol@f1+3)^0,w,c
   825   00ED26  6E50               	movwf	___fltol@exp1^0,c
   826   00ED28  5050               	movf	___fltol@exp1^0,w,c
   827   00ED2A  A4D8               	btfss	status,2,c
   828   00ED2C  EF9A  F076         	goto	u3091
   829   00ED30  EF9C  F076         	goto	u3090
   830   00ED34                     u3091:
   831   00ED34  EFA6  F076         	goto	l2542
   832   00ED38                     u3090:
   833   00ED38                     l2538:
   834   00ED38  0E00               	movlw	0
   835   00ED3A  6E47               	movwf	?___fltol^0,c
   836   00ED3C  0E00               	movlw	0
   837   00ED3E  6E48               	movwf	(?___fltol+1)^0,c
   838   00ED40  0E00               	movlw	0
   839   00ED42  6E49               	movwf	(?___fltol+2)^0,c
   840   00ED44  0E00               	movlw	0
   841   00ED46  6E4A               	movwf	(?___fltol+3)^0,c
   842   00ED48  EF13  F077         	goto	l664
   843   00ED4C                     l2542:
   844   00ED4C  C047  F04B         	movff	___fltol@f1,??___fltol
   845   00ED50  C048  F04C         	movff	___fltol@f1+1,??___fltol+1
   846   00ED54  C049  F04D         	movff	___fltol@f1+2,??___fltol+2
   847   00ED58  C04A  F04E         	movff	___fltol@f1+3,??___fltol+3
   848   00ED5C  0E20               	movlw	32
   849   00ED5E  EFB6  F076         	goto	u3100
   850   00ED62                     u3105:
   851   00ED62  90D8               	bcf	status,0,c
   852   00ED64  324E               	rrcf	(??___fltol+3)^0,f,c
   853   00ED66  324D               	rrcf	(??___fltol+2)^0,f,c
   854   00ED68  324C               	rrcf	(??___fltol+1)^0,f,c
   855   00ED6A  324B               	rrcf	??___fltol^0,f,c
   856   00ED6C                     u3100:
   857   00ED6C  2EE8               	decfsz	wreg,f,c
   858   00ED6E  EFB1  F076         	goto	u3105
   859   00ED72  504B               	movf	??___fltol^0,w,c
   860   00ED74  6E4F               	movwf	___fltol@sign1^0,c
   861   00ED76  8E49               	bsf	(___fltol@f1+2)^0,7,c
   862   00ED78  0EFF               	movlw	255
   863   00ED7A  1647               	andwf	___fltol@f1^0,f,c
   864   00ED7C  0EFF               	movlw	255
   865   00ED7E  1648               	andwf	(___fltol@f1+1)^0,f,c
   866   00ED80  0EFF               	movlw	255
   867   00ED82  1649               	andwf	(___fltol@f1+2)^0,f,c
   868   00ED84  0E00               	movlw	0
   869   00ED86  164A               	andwf	(___fltol@f1+3)^0,f,c
   870   00ED88  0E96               	movlw	150
   871   00ED8A  5E50               	subwf	___fltol@exp1^0,f,c
   872   00ED8C  BE50               	btfsc	___fltol@exp1^0,7,c
   873   00ED8E  EFCD  F076         	goto	u3110
   874   00ED92  EFCB  F076         	goto	u3111
   875   00ED96                     u3111:
   876   00ED96  EFE3  F076         	goto	l2562
   877   00ED9A                     u3110:
   878   00ED9A  5050               	movf	___fltol@exp1^0,w,c
   879   00ED9C  0A80               	xorlw	128
   880   00ED9E  0F97               	addlw	151
   881   00EDA0  B0D8               	btfsc	status,0,c
   882   00EDA2  EFD5  F076         	goto	u3121
   883   00EDA6  EFD7  F076         	goto	u3120
   884   00EDAA                     u3121:
   885   00EDAA  EFD9  F076         	goto	l2558
   886   00EDAE                     u3120:
   887   00EDAE  EF9C  F076         	goto	l2538
   888   00EDB2                     l2558:
   889   00EDB2  90D8               	bcf	status,0,c
   890   00EDB4  324A               	rrcf	(___fltol@f1+3)^0,f,c
   891   00EDB6  3249               	rrcf	(___fltol@f1+2)^0,f,c
   892   00EDB8  3248               	rrcf	(___fltol@f1+1)^0,f,c
   893   00EDBA  3247               	rrcf	___fltol@f1^0,f,c
   894   00EDBC  3E50               	incfsz	___fltol@exp1^0,f,c
   895   00EDBE  EFD9  F076         	goto	l2558
   896   00EDC2  EFFB  F076         	goto	l2572
   897   00EDC6                     l2562:
   898   00EDC6  0E1F               	movlw	31
   899   00EDC8  6450               	cpfsgt	___fltol@exp1^0,c
   900   00EDCA  EFE9  F076         	goto	u3131
   901   00EDCE  EFEB  F076         	goto	u3130
   902   00EDD2                     u3131:
   903   00EDD2  EFF3  F076         	goto	l2570
   904   00EDD6                     u3130:
   905   00EDD6  EF9C  F076         	goto	l2538
   906   00EDDA                     l2568:
   907   00EDDA  90D8               	bcf	status,0,c
   908   00EDDC  3647               	rlcf	___fltol@f1^0,f,c
   909   00EDDE  3648               	rlcf	(___fltol@f1+1)^0,f,c
   910   00EDE0  3649               	rlcf	(___fltol@f1+2)^0,f,c
   911   00EDE2  364A               	rlcf	(___fltol@f1+3)^0,f,c
   912   00EDE4  0650               	decf	___fltol@exp1^0,f,c
   913   00EDE6                     l2570:
   914   00EDE6  5050               	movf	___fltol@exp1^0,w,c
   915   00EDE8  A4D8               	btfss	status,2,c
   916   00EDEA  EFF9  F076         	goto	u3141
   917   00EDEE  EFFB  F076         	goto	u3140
   918   00EDF2                     u3141:
   919   00EDF2  EFED  F076         	goto	l2568
   920   00EDF6                     u3140:
   921   00EDF6                     l2572:
   922   00EDF6  504F               	movf	___fltol@sign1^0,w,c
   923   00EDF8  B4D8               	btfsc	status,2,c
   924   00EDFA  EF01  F077         	goto	u3151
   925   00EDFE  EF03  F077         	goto	u3150
   926   00EE02                     u3151:
   927   00EE02  EF0B  F077         	goto	l2576
   928   00EE06                     u3150:
   929   00EE06  1E4A               	comf	(___fltol@f1+3)^0,f,c
   930   00EE08  1E49               	comf	(___fltol@f1+2)^0,f,c
   931   00EE0A  1E48               	comf	(___fltol@f1+1)^0,f,c
   932   00EE0C  6C47               	negf	___fltol@f1^0,c
   933   00EE0E  0E00               	movlw	0
   934   00EE10  2248               	addwfc	(___fltol@f1+1)^0,f,c
   935   00EE12  2249               	addwfc	(___fltol@f1+2)^0,f,c
   936   00EE14  224A               	addwfc	(___fltol@f1+3)^0,f,c
   937   00EE16                     l2576:
   938   00EE16  C047  F047         	movff	___fltol@f1,?___fltol
   939   00EE1A  C048  F048         	movff	___fltol@f1+1,?___fltol+1
   940   00EE1E  C049  F049         	movff	___fltol@f1+2,?___fltol+2
   941   00EE22  C04A  F04A         	movff	___fltol@f1+3,?___fltol+3
   942   00EE26                     l664:
   943   00EE26  0012               	return		;funcret
   944   00EE28                     __end_of___fltol:
   945                           	callstack 0
   946                           
   947 ;; *************** function ___flmul *****************
   948 ;; Defined at:
   949 ;;		line 8 in file "C:\Program Files\Microchip\xc8\v2.40\pic\sources\c99\common\sprcmul.c"
   950 ;; Parameters:    Size  Location     Type
   951 ;;  b               4   45[COMRAM] long 
   952 ;;  a               4   49[COMRAM] long 
   953 ;; Auto vars:     Size  Location     Type
   954 ;;  prod            4   64[COMRAM] struct .
   955 ;;  grs             4   58[COMRAM] unsigned long 
   956 ;;  temp            2   68[COMRAM] struct .
   957 ;;  bexp            1   63[COMRAM] unsigned char 
   958 ;;  aexp            1   62[COMRAM] unsigned char 
   959 ;;  sign            1   57[COMRAM] unsigned char 
   960 ;; Return value:  Size  Location     Type
   961 ;;                  4   45[COMRAM] unsigned char 
   962 ;; Registers used:
   963 ;;		wreg, status,2, status,0, prodl, prodh
   964 ;; Tracked objects:
   965 ;;		On entry : 0/0
   966 ;;		On exit  : 0/0
   967 ;;		Unchanged: 0/0
   968 ;; Data sizes:     COMRAM   BANK0   BANK1   BANK2   BANK3   BANK4   BANK5   BANK6   BANK7   BANK8   BANK9  BANK10  BANK1
      +1  BANK12  BANK13  BANK14  BANK15
   969 ;;      Params:         8       0       0       0       0       0       0       0       0       0       0       0       
      +0       0       0       0       0
   970 ;;      Locals:        13       0       0       0       0       0       0       0       0       0       0       0       
      +0       0       0       0       0
   971 ;;      Temps:          4       0       0       0       0       0       0       0       0       0       0       0       
      +0       0       0       0       0
   972 ;;      Totals:        25       0       0       0       0       0       0       0       0       0       0       0       
      +0       0       0       0       0
   973 ;;Total ram usage:       25 bytes
   974 ;; Hardware stack levels used: 1
   975 ;; This function calls:
   976 ;;		Nothing
   977 ;; This function is called by:
   978 ;;		_main
   979 ;; This function uses a non-reentrant model
   980 ;;
   981                           
   982                           	psect	text4
   983   00FBD6                     __ptext4:
   984                           	callstack 0
   985   00FBD6                     ___flmul:
   986                           	callstack 30
   987   00FBD6  5031               	movf	(___flmul@b+3)^0,w,c
   988   00FBD8  0B80               	andlw	128
   989   00FBDA  6E3A               	movwf	___flmul@sign^0,c
   990   00FBDC  5031               	movf	(___flmul@b+3)^0,w,c
   991   00FBDE  2431               	addwf	(___flmul@b+3)^0,w,c
   992   00FBE0  6E40               	movwf	___flmul@bexp^0,c
   993   00FBE2  AE30               	btfss	(___flmul@b+2)^0,7,c
   994   00FBE4  EFF6  F07D         	goto	u2901
   995   00FBE8  EFF8  F07D         	goto	u2900
   996   00FBEC                     u2901:
   997   00FBEC  EFF9  F07D         	goto	l2412
   998   00FBF0                     u2900:
   999   00FBF0  8040               	bsf	___flmul@bexp^0,0,c
  1000   00FBF2                     l2412:
  1001   00FBF2  5040               	movf	___flmul@bexp^0,w,c
  1002   00FBF4  B4D8               	btfsc	status,2,c
  1003   00FBF6  EFFF  F07D         	goto	u2911
  1004   00FBFA  EF01  F07E         	goto	u2910
  1005   00FBFE                     u2911:
  1006   00FBFE  EF14  F07E         	goto	l2420
  1007   00FC02                     u2910:
  1008   00FC02  2840               	incf	___flmul@bexp^0,w,c
  1009   00FC04  A4D8               	btfss	status,2,c
  1010   00FC06  EF07  F07E         	goto	u2921
  1011   00FC0A  EF09  F07E         	goto	u2920
  1012   00FC0E                     u2921:
  1013   00FC0E  EF11  F07E         	goto	l2418
  1014   00FC12                     u2920:
  1015   00FC12  0E00               	movlw	0
  1016   00FC14  6E2E               	movwf	___flmul@b^0,c
  1017   00FC16  0E00               	movlw	0
  1018   00FC18  6E2F               	movwf	(___flmul@b+1)^0,c
  1019   00FC1A  0E00               	movlw	0
  1020   00FC1C  6E30               	movwf	(___flmul@b+2)^0,c
  1021   00FC1E  0E00               	movlw	0
  1022   00FC20  6E31               	movwf	(___flmul@b+3)^0,c
  1023   00FC22                     l2418:
  1024   00FC22  8E30               	bsf	(___flmul@b+2)^0,7,c
  1025   00FC24  EF1C  F07E         	goto	l2422
  1026   00FC28                     l2420:
  1027   00FC28  0E00               	movlw	0
  1028   00FC2A  6E2E               	movwf	___flmul@b^0,c
  1029   00FC2C  0E00               	movlw	0
  1030   00FC2E  6E2F               	movwf	(___flmul@b+1)^0,c
  1031   00FC30  0E00               	movlw	0
  1032   00FC32  6E30               	movwf	(___flmul@b+2)^0,c
  1033   00FC34  0E00               	movlw	0
  1034   00FC36  6E31               	movwf	(___flmul@b+3)^0,c
  1035   00FC38                     l2422:
  1036   00FC38  5035               	movf	(___flmul@a+3)^0,w,c
  1037   00FC3A  0B80               	andlw	128
  1038   00FC3C  1A3A               	xorwf	___flmul@sign^0,f,c
  1039   00FC3E  5035               	movf	(___flmul@a+3)^0,w,c
  1040   00FC40  2435               	addwf	(___flmul@a+3)^0,w,c
  1041   00FC42  6E3F               	movwf	___flmul@aexp^0,c
  1042   00FC44  AE34               	btfss	(___flmul@a+2)^0,7,c
  1043   00FC46  EF27  F07E         	goto	u2931
  1044   00FC4A  EF29  F07E         	goto	u2930
  1045   00FC4E                     u2931:
  1046   00FC4E  EF2A  F07E         	goto	l2430
  1047   00FC52                     u2930:
  1048   00FC52  803F               	bsf	___flmul@aexp^0,0,c
  1049   00FC54                     l2430:
  1050   00FC54  503F               	movf	___flmul@aexp^0,w,c
  1051   00FC56  B4D8               	btfsc	status,2,c
  1052   00FC58  EF30  F07E         	goto	u2941
  1053   00FC5C  EF32  F07E         	goto	u2940
  1054   00FC60                     u2941:
  1055   00FC60  EF45  F07E         	goto	l2438
  1056   00FC64                     u2940:
  1057   00FC64  283F               	incf	___flmul@aexp^0,w,c
  1058   00FC66  A4D8               	btfss	status,2,c
  1059   00FC68  EF38  F07E         	goto	u2951
  1060   00FC6C  EF3A  F07E         	goto	u2950
  1061   00FC70                     u2951:
  1062   00FC70  EF42  F07E         	goto	l2436
  1063   00FC74                     u2950:
  1064   00FC74  0E00               	movlw	0
  1065   00FC76  6E32               	movwf	___flmul@a^0,c
  1066   00FC78  0E00               	movlw	0
  1067   00FC7A  6E33               	movwf	(___flmul@a+1)^0,c
  1068   00FC7C  0E00               	movlw	0
  1069   00FC7E  6E34               	movwf	(___flmul@a+2)^0,c
  1070   00FC80  0E00               	movlw	0
  1071   00FC82  6E35               	movwf	(___flmul@a+3)^0,c
  1072   00FC84                     l2436:
  1073   00FC84  8E34               	bsf	(___flmul@a+2)^0,7,c
  1074   00FC86  EF4D  F07E         	goto	l981
  1075   00FC8A                     l2438:
  1076   00FC8A  0E00               	movlw	0
  1077   00FC8C  6E32               	movwf	___flmul@a^0,c
  1078   00FC8E  0E00               	movlw	0
  1079   00FC90  6E33               	movwf	(___flmul@a+1)^0,c
  1080   00FC92  0E00               	movlw	0
  1081   00FC94  6E34               	movwf	(___flmul@a+2)^0,c
  1082   00FC96  0E00               	movlw	0
  1083   00FC98  6E35               	movwf	(___flmul@a+3)^0,c
  1084   00FC9A                     l981:
  1085   00FC9A  503F               	movf	___flmul@aexp^0,w,c
  1086   00FC9C  B4D8               	btfsc	status,2,c
  1087   00FC9E  EF53  F07E         	goto	u2961
  1088   00FCA2  EF55  F07E         	goto	u2960
  1089   00FCA6                     u2961:
  1090   00FCA6  EF5D  F07E         	goto	l2442
  1091   00FCAA                     u2960:
  1092   00FCAA  5040               	movf	___flmul@bexp^0,w,c
  1093   00FCAC  A4D8               	btfss	status,2,c
  1094   00FCAE  EF5B  F07E         	goto	u2971
  1095   00FCB2  EF5D  F07E         	goto	u2970
  1096   00FCB6                     u2971:
  1097   00FCB6  EF67  F07E         	goto	l2446
  1098   00FCBA                     u2970:
  1099   00FCBA                     l2442:
  1100   00FCBA  0E00               	movlw	0
  1101   00FCBC  6E2E               	movwf	?___flmul^0,c
  1102   00FCBE  0E00               	movlw	0
  1103   00FCC0  6E2F               	movwf	(?___flmul+1)^0,c
  1104   00FCC2  0E00               	movlw	0
  1105   00FCC4  6E30               	movwf	(?___flmul+2)^0,c
  1106   00FCC6  0E00               	movlw	0
  1107   00FCC8  6E31               	movwf	(?___flmul+3)^0,c
  1108   00FCCA  EFFF  F07F         	goto	l985
  1109   00FCCE                     l2446:
  1110   00FCCE  5034               	movf	(___flmul@a+2)^0,w,c
  1111   00FCD0  022E               	mulwf	___flmul@b^0,c
  1112   00FCD2  CFF3 F045          	movff	prodl,___flmul@temp
  1113   00FCD6  CFF4 F046          	movff	prodh,___flmul@temp+1
  1114   00FCDA  5045               	movf	___flmul@temp^0,w,c
  1115   00FCDC  6E3B               	movwf	___flmul@grs^0,c
  1116   00FCDE  6A3C               	clrf	(___flmul@grs+1)^0,c
  1117   00FCE0  6A3D               	clrf	(___flmul@grs+2)^0,c
  1118   00FCE2  6A3E               	clrf	(___flmul@grs+3)^0,c
  1119   00FCE4  5046               	movf	(___flmul@temp+1)^0,w,c
  1120   00FCE6  6E41               	movwf	___flmul@prod^0,c
  1121   00FCE8  6A42               	clrf	(___flmul@prod+1)^0,c
  1122   00FCEA  6A43               	clrf	(___flmul@prod+2)^0,c
  1123   00FCEC  6A44               	clrf	(___flmul@prod+3)^0,c
  1124   00FCEE  5033               	movf	(___flmul@a+1)^0,w,c
  1125   00FCF0  022F               	mulwf	(___flmul@b+1)^0,c
  1126   00FCF2  CFF3 F045          	movff	prodl,___flmul@temp
  1127   00FCF6  CFF4 F046          	movff	prodh,___flmul@temp+1
  1128   00FCFA  5045               	movf	___flmul@temp^0,w,c
  1129   00FCFC  263B               	addwf	___flmul@grs^0,f,c
  1130   00FCFE  0E00               	movlw	0
  1131   00FD00  223C               	addwfc	(___flmul@grs+1)^0,f,c
  1132   00FD02  223D               	addwfc	(___flmul@grs+2)^0,f,c
  1133   00FD04  223E               	addwfc	(___flmul@grs+3)^0,f,c
  1134   00FD06  5046               	movf	(___flmul@temp+1)^0,w,c
  1135   00FD08  2641               	addwf	___flmul@prod^0,f,c
  1136   00FD0A  0E00               	movlw	0
  1137   00FD0C  2242               	addwfc	(___flmul@prod+1)^0,f,c
  1138   00FD0E  2243               	addwfc	(___flmul@prod+2)^0,f,c
  1139   00FD10  2244               	addwfc	(___flmul@prod+3)^0,f,c
  1140   00FD12  5032               	movf	___flmul@a^0,w,c
  1141   00FD14  0230               	mulwf	(___flmul@b+2)^0,c
  1142   00FD16  CFF3 F045          	movff	prodl,___flmul@temp
  1143   00FD1A  CFF4 F046          	movff	prodh,___flmul@temp+1
  1144   00FD1E  5045               	movf	___flmul@temp^0,w,c
  1145   00FD20  263B               	addwf	___flmul@grs^0,f,c
  1146   00FD22  0E00               	movlw	0
  1147   00FD24  223C               	addwfc	(___flmul@grs+1)^0,f,c
  1148   00FD26  223D               	addwfc	(___flmul@grs+2)^0,f,c
  1149   00FD28  223E               	addwfc	(___flmul@grs+3)^0,f,c
  1150   00FD2A  5046               	movf	(___flmul@temp+1)^0,w,c
  1151   00FD2C  2641               	addwf	___flmul@prod^0,f,c
  1152   00FD2E  0E00               	movlw	0
  1153   00FD30  2242               	addwfc	(___flmul@prod+1)^0,f,c
  1154   00FD32  2243               	addwfc	(___flmul@prod+2)^0,f,c
  1155   00FD34  2244               	addwfc	(___flmul@prod+3)^0,f,c
  1156   00FD36  C03D  F03E         	movff	___flmul@grs+2,___flmul@grs+3
  1157   00FD3A  C03C  F03D         	movff	___flmul@grs+1,___flmul@grs+2
  1158   00FD3E  C03B  F03C         	movff	___flmul@grs,___flmul@grs+1
  1159   00FD42  6A3B               	clrf	___flmul@grs^0,c
  1160   00FD44  5032               	movf	___flmul@a^0,w,c
  1161   00FD46  022F               	mulwf	(___flmul@b+1)^0,c
  1162   00FD48  CFF3 F045          	movff	prodl,___flmul@temp
  1163   00FD4C  CFF4 F046          	movff	prodh,___flmul@temp+1
  1164   00FD50  5045               	movf	___flmul@temp^0,w,c
  1165   00FD52  263B               	addwf	___flmul@grs^0,f,c
  1166   00FD54  5046               	movf	(___flmul@temp+1)^0,w,c
  1167   00FD56  223C               	addwfc	(___flmul@grs+1)^0,f,c
  1168   00FD58  0E00               	movlw	0
  1169   00FD5A  223D               	addwfc	(___flmul@grs+2)^0,f,c
  1170   00FD5C  0E00               	movlw	0
  1171   00FD5E  223E               	addwfc	(___flmul@grs+3)^0,f,c
  1172   00FD60  5033               	movf	(___flmul@a+1)^0,w,c
  1173   00FD62  022E               	mulwf	___flmul@b^0,c
  1174   00FD64  CFF3 F045          	movff	prodl,___flmul@temp
  1175   00FD68  CFF4 F046          	movff	prodh,___flmul@temp+1
  1176   00FD6C  5045               	movf	___flmul@temp^0,w,c
  1177   00FD6E  263B               	addwf	___flmul@grs^0,f,c
  1178   00FD70  5046               	movf	(___flmul@temp+1)^0,w,c
  1179   00FD72  223C               	addwfc	(___flmul@grs+1)^0,f,c
  1180   00FD74  0E00               	movlw	0
  1181   00FD76  223D               	addwfc	(___flmul@grs+2)^0,f,c
  1182   00FD78  0E00               	movlw	0
  1183   00FD7A  223E               	addwfc	(___flmul@grs+3)^0,f,c
  1184   00FD7C  C03D  F03E         	movff	___flmul@grs+2,___flmul@grs+3
  1185   00FD80  C03C  F03D         	movff	___flmul@grs+1,___flmul@grs+2
  1186   00FD84  C03B  F03C         	movff	___flmul@grs,___flmul@grs+1
  1187   00FD88  6A3B               	clrf	___flmul@grs^0,c
  1188   00FD8A  5032               	movf	___flmul@a^0,w,c
  1189   00FD8C  022E               	mulwf	___flmul@b^0,c
  1190   00FD8E  CFF3 F045          	movff	prodl,___flmul@temp
  1191   00FD92  CFF4 F046          	movff	prodh,___flmul@temp+1
  1192   00FD96  5045               	movf	___flmul@temp^0,w,c
  1193   00FD98  263B               	addwf	___flmul@grs^0,f,c
  1194   00FD9A  5046               	movf	(___flmul@temp+1)^0,w,c
  1195   00FD9C  223C               	addwfc	(___flmul@grs+1)^0,f,c
  1196   00FD9E  0E00               	movlw	0
  1197   00FDA0  223D               	addwfc	(___flmul@grs+2)^0,f,c
  1198   00FDA2  0E00               	movlw	0
  1199   00FDA4  223E               	addwfc	(___flmul@grs+3)^0,f,c
  1200   00FDA6  5034               	movf	(___flmul@a+2)^0,w,c
  1201   00FDA8  022F               	mulwf	(___flmul@b+1)^0,c
  1202   00FDAA  CFF3 F045          	movff	prodl,___flmul@temp
  1203   00FDAE  CFF4 F046          	movff	prodh,___flmul@temp+1
  1204   00FDB2  5045               	movf	___flmul@temp^0,w,c
  1205   00FDB4  2641               	addwf	___flmul@prod^0,f,c
  1206   00FDB6  5046               	movf	(___flmul@temp+1)^0,w,c
  1207   00FDB8  2242               	addwfc	(___flmul@prod+1)^0,f,c
  1208   00FDBA  0E00               	movlw	0
  1209   00FDBC  2243               	addwfc	(___flmul@prod+2)^0,f,c
  1210   00FDBE  0E00               	movlw	0
  1211   00FDC0  2244               	addwfc	(___flmul@prod+3)^0,f,c
  1212   00FDC2  5033               	movf	(___flmul@a+1)^0,w,c
  1213   00FDC4  0230               	mulwf	(___flmul@b+2)^0,c
  1214   00FDC6  CFF3 F045          	movff	prodl,___flmul@temp
  1215   00FDCA  CFF4 F046          	movff	prodh,___flmul@temp+1
  1216   00FDCE  5045               	movf	___flmul@temp^0,w,c
  1217   00FDD0  2641               	addwf	___flmul@prod^0,f,c
  1218   00FDD2  5046               	movf	(___flmul@temp+1)^0,w,c
  1219   00FDD4  2242               	addwfc	(___flmul@prod+1)^0,f,c
  1220   00FDD6  0E00               	movlw	0
  1221   00FDD8  2243               	addwfc	(___flmul@prod+2)^0,f,c
  1222   00FDDA  0E00               	movlw	0
  1223   00FDDC  2244               	addwfc	(___flmul@prod+3)^0,f,c
  1224   00FDDE  5034               	movf	(___flmul@a+2)^0,w,c
  1225   00FDE0  0230               	mulwf	(___flmul@b+2)^0,c
  1226   00FDE2  CFF3 F045          	movff	prodl,___flmul@temp
  1227   00FDE6  CFF4 F046          	movff	prodh,___flmul@temp+1
  1228   00FDEA  5045               	movf	___flmul@temp^0,w,c
  1229   00FDEC  6E36               	movwf	??___flmul^0,c
  1230   00FDEE  5046               	movf	(___flmul@temp+1)^0,w,c
  1231   00FDF0  6E37               	movwf	(??___flmul+1)^0,c
  1232   00FDF2  6A38               	clrf	(??___flmul+2)^0,c
  1233   00FDF4  6A39               	clrf	(??___flmul+3)^0,c
  1234   00FDF6  C038  F039         	movff	??___flmul+2,??___flmul+3
  1235   00FDFA  C037  F038         	movff	??___flmul+1,??___flmul+2
  1236   00FDFE  C036  F037         	movff	??___flmul,??___flmul+1
  1237   00FE02  6A36               	clrf	??___flmul^0,c
  1238   00FE04  5036               	movf	??___flmul^0,w,c
  1239   00FE06  2641               	addwf	___flmul@prod^0,f,c
  1240   00FE08  5037               	movf	(??___flmul+1)^0,w,c
  1241   00FE0A  2242               	addwfc	(___flmul@prod+1)^0,f,c
  1242   00FE0C  5038               	movf	(??___flmul+2)^0,w,c
  1243   00FE0E  2243               	addwfc	(___flmul@prod+2)^0,f,c
  1244   00FE10  5039               	movf	(??___flmul+3)^0,w,c
  1245   00FE12  2244               	addwfc	(___flmul@prod+3)^0,f,c
  1246   00FE14  C03B  F036         	movff	___flmul@grs,??___flmul
  1247   00FE18  C03C  F037         	movff	___flmul@grs+1,??___flmul+1
  1248   00FE1C  C03D  F038         	movff	___flmul@grs+2,??___flmul+2
  1249   00FE20  C03E  F039         	movff	___flmul@grs+3,??___flmul+3
  1250   00FE24  0E19               	movlw	25
  1251   00FE26  EF1A  F07F         	goto	u2980
  1252   00FE2A                     u2985:
  1253   00FE2A  90D8               	bcf	status,0,c
  1254   00FE2C  3239               	rrcf	(??___flmul+3)^0,f,c
  1255   00FE2E  3238               	rrcf	(??___flmul+2)^0,f,c
  1256   00FE30  3237               	rrcf	(??___flmul+1)^0,f,c
  1257   00FE32  3236               	rrcf	??___flmul^0,f,c
  1258   00FE34                     u2980:
  1259   00FE34  2EE8               	decfsz	wreg,f,c
  1260   00FE36  EF15  F07F         	goto	u2985
  1261   00FE3A  5036               	movf	??___flmul^0,w,c
  1262   00FE3C  2641               	addwf	___flmul@prod^0,f,c
  1263   00FE3E  5037               	movf	(??___flmul+1)^0,w,c
  1264   00FE40  2242               	addwfc	(___flmul@prod+1)^0,f,c
  1265   00FE42  5038               	movf	(??___flmul+2)^0,w,c
  1266   00FE44  2243               	addwfc	(___flmul@prod+2)^0,f,c
  1267   00FE46  5039               	movf	(??___flmul+3)^0,w,c
  1268   00FE48  2244               	addwfc	(___flmul@prod+3)^0,f,c
  1269   00FE4A  C03D  F03E         	movff	___flmul@grs+2,___flmul@grs+3
  1270   00FE4E  C03C  F03D         	movff	___flmul@grs+1,___flmul@grs+2
  1271   00FE52  C03B  F03C         	movff	___flmul@grs,___flmul@grs+1
  1272   00FE56  6A3B               	clrf	___flmul@grs^0,c
  1273   00FE58  503F               	movf	___flmul@aexp^0,w,c
  1274   00FE5A  C040  F036         	movff	___flmul@bexp,??___flmul
  1275   00FE5E  6A37               	clrf	(??___flmul+1)^0,c
  1276   00FE60  2636               	addwf	??___flmul^0,f,c
  1277   00FE62  0E00               	movlw	0
  1278   00FE64  2237               	addwfc	(??___flmul+1)^0,f,c
  1279   00FE66  0E82               	movlw	130
  1280   00FE68  2436               	addwf	??___flmul^0,w,c
  1281   00FE6A  6E45               	movwf	___flmul@temp^0,c
  1282   00FE6C  0EFF               	movlw	255
  1283   00FE6E  2037               	addwfc	(??___flmul+1)^0,w,c
  1284   00FE70  6E46               	movwf	(___flmul@temp+1)^0,c
  1285   00FE72  EF50  F07F         	goto	l2494
  1286   00FE76                     l2488:
  1287   00FE76  90D8               	bcf	status,0,c
  1288   00FE78  3641               	rlcf	___flmul@prod^0,f,c
  1289   00FE7A  3642               	rlcf	(___flmul@prod+1)^0,f,c
  1290   00FE7C  3643               	rlcf	(___flmul@prod+2)^0,f,c
  1291   00FE7E  3644               	rlcf	(___flmul@prod+3)^0,f,c
  1292   00FE80  AE3E               	btfss	(___flmul@grs+3)^0,7,c
  1293   00FE82  EF45  F07F         	goto	u2991
  1294   00FE86  EF47  F07F         	goto	u2990
  1295   00FE8A                     u2991:
  1296   00FE8A  EF48  F07F         	goto	l988
  1297   00FE8E                     u2990:
  1298   00FE8E  8041               	bsf	___flmul@prod^0,0,c
  1299   00FE90                     l988:
  1300   00FE90  90D8               	bcf	status,0,c
  1301   00FE92  363B               	rlcf	___flmul@grs^0,f,c
  1302   00FE94  363C               	rlcf	(___flmul@grs+1)^0,f,c
  1303   00FE96  363D               	rlcf	(___flmul@grs+2)^0,f,c
  1304   00FE98  363E               	rlcf	(___flmul@grs+3)^0,f,c
  1305   00FE9A  0645               	decf	___flmul@temp^0,f,c
  1306   00FE9C  A0D8               	btfss	status,0,c
  1307   00FE9E  0646               	decf	(___flmul@temp+1)^0,f,c
  1308   00FEA0                     l2494:
  1309   00FEA0  AE43               	btfss	(___flmul@prod+2)^0,7,c
  1310   00FEA2  EF55  F07F         	goto	u3001
  1311   00FEA6  EF57  F07F         	goto	u3000
  1312   00FEAA                     u3001:
  1313   00FEAA  EF3B  F07F         	goto	l2488
  1314   00FEAE                     u3000:
  1315   00FEAE  0E00               	movlw	0
  1316   00FEB0  6E3F               	movwf	___flmul@aexp^0,c
  1317   00FEB2  AE3E               	btfss	(___flmul@grs+3)^0,7,c
  1318   00FEB4  EF5E  F07F         	goto	u3011
  1319   00FEB8  EF60  F07F         	goto	u3010
  1320   00FEBC                     u3011:
  1321   00FEBC  EF84  F07F         	goto	l990
  1322   00FEC0                     u3010:
  1323   00FEC0  0EFF               	movlw	255
  1324   00FEC2  143B               	andwf	___flmul@grs^0,w,c
  1325   00FEC4  6E36               	movwf	??___flmul^0,c
  1326   00FEC6  0EFF               	movlw	255
  1327   00FEC8  143C               	andwf	(___flmul@grs+1)^0,w,c
  1328   00FECA  6E37               	movwf	(??___flmul+1)^0,c
  1329   00FECC  0EFF               	movlw	255
  1330   00FECE  143D               	andwf	(___flmul@grs+2)^0,w,c
  1331   00FED0  6E38               	movwf	(??___flmul+2)^0,c
  1332   00FED2  0E7F               	movlw	127
  1333   00FED4  143E               	andwf	(___flmul@grs+3)^0,w,c
  1334   00FED6  6E39               	movwf	(??___flmul+3)^0,c
  1335   00FED8  5036               	movf	??___flmul^0,w,c
  1336   00FEDA  1037               	iorwf	(??___flmul+1)^0,w,c
  1337   00FEDC  1038               	iorwf	(??___flmul+2)^0,w,c
  1338   00FEDE  1039               	iorwf	(??___flmul+3)^0,w,c
  1339   00FEE0  B4D8               	btfsc	status,2,c
  1340   00FEE2  EF75  F07F         	goto	u3021
  1341   00FEE6  EF77  F07F         	goto	u3020
  1342   00FEEA                     u3021:
  1343   00FEEA  EF7B  F07F         	goto	l991
  1344   00FEEE                     u3020:
  1345   00FEEE                     l2502:
  1346   00FEEE  0E01               	movlw	1
  1347   00FEF0  6E3F               	movwf	___flmul@aexp^0,c
  1348   00FEF2  EF84  F07F         	goto	l990
  1349   00FEF6                     l991:
  1350   00FEF6  A041               	btfss	___flmul@prod^0,0,c
  1351   00FEF8  EF80  F07F         	goto	u3031
  1352   00FEFC  EF82  F07F         	goto	u3030
  1353   00FF00                     u3031:
  1354   00FF00  EF84  F07F         	goto	l990
  1355   00FF04                     u3030:
  1356   00FF04  EF77  F07F         	goto	l2502
  1357   00FF08                     l990:
  1358   00FF08  503F               	movf	___flmul@aexp^0,w,c
  1359   00FF0A  B4D8               	btfsc	status,2,c
  1360   00FF0C  EF8A  F07F         	goto	u3041
  1361   00FF10  EF8C  F07F         	goto	u3040
  1362   00FF14                     u3041:
  1363   00FF14  EFB0  F07F         	goto	l2514
  1364   00FF18                     u3040:
  1365   00FF18  0E01               	movlw	1
  1366   00FF1A  2641               	addwf	___flmul@prod^0,f,c
  1367   00FF1C  0E00               	movlw	0
  1368   00FF1E  2242               	addwfc	(___flmul@prod+1)^0,f,c
  1369   00FF20  2243               	addwfc	(___flmul@prod+2)^0,f,c
  1370   00FF22  2244               	addwfc	(___flmul@prod+3)^0,f,c
  1371   00FF24  A044               	btfss	(___flmul@prod+3)^0,0,c
  1372   00FF26  EF97  F07F         	goto	u3051
  1373   00FF2A  EF99  F07F         	goto	u3050
  1374   00FF2E                     u3051:
  1375   00FF2E  EFB0  F07F         	goto	l2514
  1376   00FF32                     u3050:
  1377   00FF32  C041  F036         	movff	___flmul@prod,??___flmul
  1378   00FF36  C042  F037         	movff	___flmul@prod+1,??___flmul+1
  1379   00FF3A  C043  F038         	movff	___flmul@prod+2,??___flmul+2
  1380   00FF3E  C044  F039         	movff	___flmul@prod+3,??___flmul+3
  1381   00FF42  3439               	rlcf	(??___flmul+3)^0,w,c
  1382   00FF44  3239               	rrcf	(??___flmul+3)^0,f,c
  1383   00FF46  3238               	rrcf	(??___flmul+2)^0,f,c
  1384   00FF48  3237               	rrcf	(??___flmul+1)^0,f,c
  1385   00FF4A  3236               	rrcf	??___flmul^0,f,c
  1386   00FF4C  C036  F041         	movff	??___flmul,___flmul@prod
  1387   00FF50  C037  F042         	movff	??___flmul+1,___flmul@prod+1
  1388   00FF54  C038  F043         	movff	??___flmul+2,___flmul@prod+2
  1389   00FF58  C039  F044         	movff	??___flmul+3,___flmul@prod+3
  1390   00FF5C  4A45               	infsnz	___flmul@temp^0,f,c
  1391   00FF5E  2A46               	incf	(___flmul@temp+1)^0,f,c
  1392   00FF60                     l2514:
  1393   00FF60  BE46               	btfsc	(___flmul@temp+1)^0,7,c
  1394   00FF62  EFBB  F07F         	goto	u3061
  1395   00FF66  5046               	movf	(___flmul@temp+1)^0,w,c
  1396   00FF68  E108               	bnz	u3060
  1397   00FF6A  2845               	incf	___flmul@temp^0,w,c
  1398   00FF6C  A0D8               	btfss	status,0,c
  1399   00FF6E  EFBB  F07F         	goto	u3061
  1400   00FF72  EFBD  F07F         	goto	u3060
  1401   00FF76                     u3061:
  1402   00FF76  EFC7  F07F         	goto	l2518
  1403   00FF7A                     u3060:
  1404   00FF7A  0E00               	movlw	0
  1405   00FF7C  6E41               	movwf	___flmul@prod^0,c
  1406   00FF7E  0E00               	movlw	0
  1407   00FF80  6E42               	movwf	(___flmul@prod+1)^0,c
  1408   00FF82  0E80               	movlw	128
  1409   00FF84  6E43               	movwf	(___flmul@prod+2)^0,c
  1410   00FF86  0E7F               	movlw	127
  1411   00FF88  6E44               	movwf	(___flmul@prod+3)^0,c
  1412   00FF8A  EFF5  F07F         	goto	l2530
  1413   00FF8E                     l2518:
  1414   00FF8E  BE46               	btfsc	(___flmul@temp+1)^0,7,c
  1415   00FF90  EFD4  F07F         	goto	u3070
  1416   00FF94  5046               	movf	(___flmul@temp+1)^0,w,c
  1417   00FF96  E106               	bnz	u3071
  1418   00FF98  0445               	decf	___flmul@temp^0,w,c
  1419   00FF9A  B0D8               	btfsc	status,0,c
  1420   00FF9C  EFD2  F07F         	goto	u3071
  1421   00FFA0  EFD4  F07F         	goto	u3070
  1422   00FFA4                     u3071:
  1423   00FFA4  EFE0  F07F         	goto	l998
  1424   00FFA8                     u3070:
  1425   00FFA8  0E00               	movlw	0
  1426   00FFAA  6E41               	movwf	___flmul@prod^0,c
  1427   00FFAC  0E00               	movlw	0
  1428   00FFAE  6E42               	movwf	(___flmul@prod+1)^0,c
  1429   00FFB0  0E00               	movlw	0
  1430   00FFB2  6E43               	movwf	(___flmul@prod+2)^0,c
  1431   00FFB4  0E00               	movlw	0
  1432   00FFB6  6E44               	movwf	(___flmul@prod+3)^0,c
  1433   00FFB8  0E00               	movlw	0
  1434   00FFBA  6E3A               	movwf	___flmul@sign^0,c
  1435   00FFBC  EFF5  F07F         	goto	l2530
  1436   00FFC0                     l998:
  1437   00FFC0  C045  F040         	movff	___flmul@temp,___flmul@bexp
  1438   00FFC4  0EFF               	movlw	255
  1439   00FFC6  1641               	andwf	___flmul@prod^0,f,c
  1440   00FFC8  0EFF               	movlw	255
  1441   00FFCA  1642               	andwf	(___flmul@prod+1)^0,f,c
  1442   00FFCC  0E7F               	movlw	127
  1443   00FFCE  1643               	andwf	(___flmul@prod+2)^0,f,c
  1444   00FFD0  0E00               	movlw	0
  1445   00FFD2  1644               	andwf	(___flmul@prod+3)^0,f,c
  1446   00FFD4  A040               	btfss	___flmul@bexp^0,0,c
  1447   00FFD6  EFEF  F07F         	goto	u3081
  1448   00FFDA  EFF1  F07F         	goto	u3080
  1449   00FFDE                     u3081:
  1450   00FFDE  EFF2  F07F         	goto	l2528
  1451   00FFE2                     u3080:
  1452   00FFE2  8E43               	bsf	(___flmul@prod+2)^0,7,c
  1453   00FFE4                     l2528:
  1454   00FFE4  90D8               	bcf	status,0,c
  1455   00FFE6  3040               	rrcf	___flmul@bexp^0,w,c
  1456   00FFE8  6E44               	movwf	(___flmul@prod+3)^0,c
  1457   00FFEA                     l2530:
  1458   00FFEA  503A               	movf	___flmul@sign^0,w,c
  1459   00FFEC  1244               	iorwf	(___flmul@prod+3)^0,f,c
  1460   00FFEE  C041  F02E         	movff	___flmul@prod,?___flmul
  1461   00FFF2  C042  F02F         	movff	___flmul@prod+1,?___flmul+1
  1462   00FFF6  C043  F030         	movff	___flmul@prod+2,?___flmul+2
  1463   00FFFA  C044  F031         	movff	___flmul@prod+3,?___flmul+3
  1464   00FFFE                     l985:
  1465   00FFFE  0012               	return		;funcret
  1466   010000                     __end_of___flmul:
  1467                           	callstack 0
  1468                           
  1469 ;; *************** function ___fldiv *****************
  1470 ;; Defined at:
  1471 ;;		line 11 in file "C:\Program Files\Microchip\xc8\v2.40\pic\sources\c99\common\sprcdiv.c"
  1472 ;; Parameters:    Size  Location     Type
  1473 ;;  b               4   20[COMRAM] unsigned char 
  1474 ;;  a               4   24[COMRAM] unsigned char 
  1475 ;; Auto vars:     Size  Location     Type
  1476 ;;  grs             4   39[COMRAM] unsigned long 
  1477 ;;  rem             4   32[COMRAM] unsigned long 
  1478 ;;  new_exp         2   37[COMRAM] short 
  1479 ;;  aexp            1   44[COMRAM] unsigned char 
  1480 ;;  bexp            1   43[COMRAM] unsigned char 
  1481 ;;  sign            1   36[COMRAM] unsigned char 
  1482 ;; Return value:  Size  Location     Type
  1483 ;;                  4   20[COMRAM] unsigned char 
  1484 ;; Registers used:
  1485 ;;		wreg, status,2, status,0
  1486 ;; Tracked objects:
  1487 ;;		On entry : 0/0
  1488 ;;		On exit  : 0/0
  1489 ;;		Unchanged: 0/0
  1490 ;; Data sizes:     COMRAM   BANK0   BANK1   BANK2   BANK3   BANK4   BANK5   BANK6   BANK7   BANK8   BANK9  BANK10  BANK1
      +1  BANK12  BANK13  BANK14  BANK15
  1491 ;;      Params:         8       0       0       0       0       0       0       0       0       0       0       0       
      +0       0       0       0       0
  1492 ;;      Locals:        13       0       0       0       0       0       0       0       0       0       0       0       
      +0       0       0       0       0
  1493 ;;      Temps:          4       0       0       0       0       0       0       0       0       0       0       0       
      +0       0       0       0       0
  1494 ;;      Totals:        25       0       0       0       0       0       0       0       0       0       0       0       
      +0       0       0       0       0
  1495 ;;Total ram usage:       25 bytes
  1496 ;; Hardware stack levels used: 1
  1497 ;; This function calls:
  1498 ;;		Nothing
  1499 ;; This function is called by:
  1500 ;;		_main
  1501 ;; This function uses a non-reentrant model
  1502 ;;
  1503                           
  1504                           	psect	text5
  1505   00F83C                     __ptext5:
  1506                           	callstack 0
  1507   00F83C                     ___fldiv:
  1508                           	callstack 30
  1509   00F83C  5018               	movf	(___fldiv@b+3)^0,w,c
  1510   00F83E  0B80               	andlw	128
  1511   00F840  6E25               	movwf	___fldiv@sign^0,c
  1512   00F842  5018               	movf	(___fldiv@b+3)^0,w,c
  1513   00F844  2418               	addwf	(___fldiv@b+3)^0,w,c
  1514   00F846  6E2C               	movwf	___fldiv@bexp^0,c
  1515   00F848  AE17               	btfss	(___fldiv@b+2)^0,7,c
  1516   00F84A  EF29  F07C         	goto	u2671
  1517   00F84E  EF2B  F07C         	goto	u2670
  1518   00F852                     u2671:
  1519   00F852  EF2C  F07C         	goto	l2274
  1520   00F856                     u2670:
  1521   00F856  802C               	bsf	___fldiv@bexp^0,0,c
  1522   00F858                     l2274:
  1523   00F858  502C               	movf	___fldiv@bexp^0,w,c
  1524   00F85A  B4D8               	btfsc	status,2,c
  1525   00F85C  EF32  F07C         	goto	u2681
  1526   00F860  EF34  F07C         	goto	u2680
  1527   00F864                     u2681:
  1528   00F864  EF49  F07C         	goto	l2284
  1529   00F868                     u2680:
  1530   00F868  282C               	incf	___fldiv@bexp^0,w,c
  1531   00F86A  A4D8               	btfss	status,2,c
  1532   00F86C  EF3A  F07C         	goto	u2691
  1533   00F870  EF3C  F07C         	goto	u2690
  1534   00F874                     u2691:
  1535   00F874  EF44  F07C         	goto	l2280
  1536   00F878                     u2690:
  1537   00F878  0E00               	movlw	0
  1538   00F87A  6E15               	movwf	___fldiv@b^0,c
  1539   00F87C  0E00               	movlw	0
  1540   00F87E  6E16               	movwf	(___fldiv@b+1)^0,c
  1541   00F880  0E00               	movlw	0
  1542   00F882  6E17               	movwf	(___fldiv@b+2)^0,c
  1543   00F884  0E00               	movlw	0
  1544   00F886  6E18               	movwf	(___fldiv@b+3)^0,c
  1545   00F888                     l2280:
  1546   00F888  8E17               	bsf	(___fldiv@b+2)^0,7,c
  1547   00F88A  0E00               	movlw	0
  1548   00F88C  6E18               	movwf	(___fldiv@b+3)^0,c
  1549   00F88E  EF51  F07C         	goto	l2286
  1550   00F892                     l2284:
  1551   00F892  0E00               	movlw	0
  1552   00F894  6E15               	movwf	___fldiv@b^0,c
  1553   00F896  0E00               	movlw	0
  1554   00F898  6E16               	movwf	(___fldiv@b+1)^0,c
  1555   00F89A  0E00               	movlw	0
  1556   00F89C  6E17               	movwf	(___fldiv@b+2)^0,c
  1557   00F89E  0E00               	movlw	0
  1558   00F8A0  6E18               	movwf	(___fldiv@b+3)^0,c
  1559   00F8A2                     l2286:
  1560   00F8A2  501C               	movf	(___fldiv@a+3)^0,w,c
  1561   00F8A4  0B80               	andlw	128
  1562   00F8A6  1A25               	xorwf	___fldiv@sign^0,f,c
  1563   00F8A8  501C               	movf	(___fldiv@a+3)^0,w,c
  1564   00F8AA  241C               	addwf	(___fldiv@a+3)^0,w,c
  1565   00F8AC  6E2D               	movwf	___fldiv@aexp^0,c
  1566   00F8AE  AE1B               	btfss	(___fldiv@a+2)^0,7,c
  1567   00F8B0  EF5C  F07C         	goto	u2701
  1568   00F8B4  EF5E  F07C         	goto	u2700
  1569   00F8B8                     u2701:
  1570   00F8B8  EF5F  F07C         	goto	l2294
  1571   00F8BC                     u2700:
  1572   00F8BC  802D               	bsf	___fldiv@aexp^0,0,c
  1573   00F8BE                     l2294:
  1574   00F8BE  502D               	movf	___fldiv@aexp^0,w,c
  1575   00F8C0  B4D8               	btfsc	status,2,c
  1576   00F8C2  EF65  F07C         	goto	u2711
  1577   00F8C6  EF67  F07C         	goto	u2710
  1578   00F8CA                     u2711:
  1579   00F8CA  EF7C  F07C         	goto	l2304
  1580   00F8CE                     u2710:
  1581   00F8CE  282D               	incf	___fldiv@aexp^0,w,c
  1582   00F8D0  A4D8               	btfss	status,2,c
  1583   00F8D2  EF6D  F07C         	goto	u2721
  1584   00F8D6  EF6F  F07C         	goto	u2720
  1585   00F8DA                     u2721:
  1586   00F8DA  EF77  F07C         	goto	l2300
  1587   00F8DE                     u2720:
  1588   00F8DE  0E00               	movlw	0
  1589   00F8E0  6E19               	movwf	___fldiv@a^0,c
  1590   00F8E2  0E00               	movlw	0
  1591   00F8E4  6E1A               	movwf	(___fldiv@a+1)^0,c
  1592   00F8E6  0E00               	movlw	0
  1593   00F8E8  6E1B               	movwf	(___fldiv@a+2)^0,c
  1594   00F8EA  0E00               	movlw	0
  1595   00F8EC  6E1C               	movwf	(___fldiv@a+3)^0,c
  1596   00F8EE                     l2300:
  1597   00F8EE  8E1B               	bsf	(___fldiv@a+2)^0,7,c
  1598   00F8F0  0E00               	movlw	0
  1599   00F8F2  6E1C               	movwf	(___fldiv@a+3)^0,c
  1600   00F8F4  EF84  F07C         	goto	l2306
  1601   00F8F8                     l2304:
  1602   00F8F8  0E00               	movlw	0
  1603   00F8FA  6E19               	movwf	___fldiv@a^0,c
  1604   00F8FC  0E00               	movlw	0
  1605   00F8FE  6E1A               	movwf	(___fldiv@a+1)^0,c
  1606   00F900  0E00               	movlw	0
  1607   00F902  6E1B               	movwf	(___fldiv@a+2)^0,c
  1608   00F904  0E00               	movlw	0
  1609   00F906  6E1C               	movwf	(___fldiv@a+3)^0,c
  1610   00F908                     l2306:
  1611   00F908  5019               	movf	___fldiv@a^0,w,c
  1612   00F90A  101A               	iorwf	(___fldiv@a+1)^0,w,c
  1613   00F90C  101B               	iorwf	(___fldiv@a+2)^0,w,c
  1614   00F90E  101C               	iorwf	(___fldiv@a+3)^0,w,c
  1615   00F910  A4D8               	btfss	status,2,c
  1616   00F912  EF8D  F07C         	goto	u2731
  1617   00F916  EF8F  F07C         	goto	u2730
  1618   00F91A                     u2731:
  1619   00F91A  EFA7  F07C         	goto	l2318
  1620   00F91E                     u2730:
  1621   00F91E  0E00               	movlw	0
  1622   00F920  6E15               	movwf	___fldiv@b^0,c
  1623   00F922  0E00               	movlw	0
  1624   00F924  6E16               	movwf	(___fldiv@b+1)^0,c
  1625   00F926  0E00               	movlw	0
  1626   00F928  6E17               	movwf	(___fldiv@b+2)^0,c
  1627   00F92A  0E00               	movlw	0
  1628   00F92C  6E18               	movwf	(___fldiv@b+3)^0,c
  1629   00F92E  0E80               	movlw	128
  1630   00F930  1217               	iorwf	(___fldiv@b+2)^0,f,c
  1631   00F932  0E7F               	movlw	127
  1632   00F934  1218               	iorwf	(___fldiv@b+3)^0,f,c
  1633   00F936                     l2312:
  1634   00F936  5025               	movf	___fldiv@sign^0,w,c
  1635   00F938  1218               	iorwf	(___fldiv@b+3)^0,f,c
  1636   00F93A  C015  F015         	movff	___fldiv@b,?___fldiv
  1637   00F93E  C016  F016         	movff	___fldiv@b+1,?___fldiv+1
  1638   00F942  C017  F017         	movff	___fldiv@b+2,?___fldiv+2
  1639   00F946  C018  F018         	movff	___fldiv@b+3,?___fldiv+3
  1640   00F94A  EFEA  F07D         	goto	l949
  1641   00F94E                     l2318:
  1642   00F94E  502C               	movf	___fldiv@bexp^0,w,c
  1643   00F950  A4D8               	btfss	status,2,c
  1644   00F952  EFAD  F07C         	goto	u2741
  1645   00F956  EFAF  F07C         	goto	u2740
  1646   00F95A                     u2741:
  1647   00F95A  EFB9  F07C         	goto	l2326
  1648   00F95E                     u2740:
  1649   00F95E  0E00               	movlw	0
  1650   00F960  6E15               	movwf	?___fldiv^0,c
  1651   00F962  0E00               	movlw	0
  1652   00F964  6E16               	movwf	(?___fldiv+1)^0,c
  1653   00F966  0E00               	movlw	0
  1654   00F968  6E17               	movwf	(?___fldiv+2)^0,c
  1655   00F96A  0E00               	movlw	0
  1656   00F96C  6E18               	movwf	(?___fldiv+3)^0,c
  1657   00F96E  EFEA  F07D         	goto	l949
  1658   00F972                     l2326:
  1659   00F972  502D               	movf	___fldiv@aexp^0,w,c
  1660   00F974  C02C  F01D         	movff	___fldiv@bexp,??___fldiv
  1661   00F978  6A1E               	clrf	(??___fldiv+1)^0,c
  1662   00F97A  5E1D               	subwf	??___fldiv^0,f,c
  1663   00F97C  0E00               	movlw	0
  1664   00F97E  5A1E               	subwfb	(??___fldiv+1)^0,f,c
  1665   00F980  0E7F               	movlw	127
  1666   00F982  241D               	addwf	??___fldiv^0,w,c
  1667   00F984  6E26               	movwf	___fldiv@new_exp^0,c
  1668   00F986  0E00               	movlw	0
  1669   00F988  201E               	addwfc	(??___fldiv+1)^0,w,c
  1670   00F98A  6E27               	movwf	(___fldiv@new_exp+1)^0,c
  1671   00F98C  C015  F021         	movff	___fldiv@b,___fldiv@rem
  1672   00F990  C016  F022         	movff	___fldiv@b+1,___fldiv@rem+1
  1673   00F994  C017  F023         	movff	___fldiv@b+2,___fldiv@rem+2
  1674   00F998  C018  F024         	movff	___fldiv@b+3,___fldiv@rem+3
  1675   00F99C  0E00               	movlw	0
  1676   00F99E  6E15               	movwf	___fldiv@b^0,c
  1677   00F9A0  0E00               	movlw	0
  1678   00F9A2  6E16               	movwf	(___fldiv@b+1)^0,c
  1679   00F9A4  0E00               	movlw	0
  1680   00F9A6  6E17               	movwf	(___fldiv@b+2)^0,c
  1681   00F9A8  0E00               	movlw	0
  1682   00F9AA  6E18               	movwf	(___fldiv@b+3)^0,c
  1683   00F9AC  0E00               	movlw	0
  1684   00F9AE  6E28               	movwf	___fldiv@grs^0,c
  1685   00F9B0  0E00               	movlw	0
  1686   00F9B2  6E29               	movwf	(___fldiv@grs+1)^0,c
  1687   00F9B4  0E00               	movlw	0
  1688   00F9B6  6E2A               	movwf	(___fldiv@grs+2)^0,c
  1689   00F9B8  0E00               	movlw	0
  1690   00F9BA  6E2B               	movwf	(___fldiv@grs+3)^0,c
  1691   00F9BC  0E00               	movlw	0
  1692   00F9BE  6E2D               	movwf	___fldiv@aexp^0,c
  1693   00F9C0  EF1A  F07D         	goto	l951
  1694   00F9C4                     l2336:
  1695   00F9C4  502D               	movf	___fldiv@aexp^0,w,c
  1696   00F9C6  B4D8               	btfsc	status,2,c
  1697   00F9C8  EFE8  F07C         	goto	u2751
  1698   00F9CC  EFEA  F07C         	goto	u2750
  1699   00F9D0                     u2751:
  1700   00F9D0  EF01  F07D         	goto	l2344
  1701   00F9D4                     u2750:
  1702   00F9D4  90D8               	bcf	status,0,c
  1703   00F9D6  3621               	rlcf	___fldiv@rem^0,f,c
  1704   00F9D8  3622               	rlcf	(___fldiv@rem+1)^0,f,c
  1705   00F9DA  3623               	rlcf	(___fldiv@rem+2)^0,f,c
  1706   00F9DC  3624               	rlcf	(___fldiv@rem+3)^0,f,c
  1707   00F9DE  90D8               	bcf	status,0,c
  1708   00F9E0  3615               	rlcf	___fldiv@b^0,f,c
  1709   00F9E2  3616               	rlcf	(___fldiv@b+1)^0,f,c
  1710   00F9E4  3617               	rlcf	(___fldiv@b+2)^0,f,c
  1711   00F9E6  3618               	rlcf	(___fldiv@b+3)^0,f,c
  1712   00F9E8  AE2B               	btfss	(___fldiv@grs+3)^0,7,c
  1713   00F9EA  EFF9  F07C         	goto	u2761
  1714   00F9EE  EFFB  F07C         	goto	u2760
  1715   00F9F2                     u2761:
  1716   00F9F2  EFFC  F07C         	goto	l954
  1717   00F9F6                     u2760:
  1718   00F9F6  8015               	bsf	___fldiv@b^0,0,c
  1719   00F9F8                     l954:
  1720   00F9F8  90D8               	bcf	status,0,c
  1721   00F9FA  3628               	rlcf	___fldiv@grs^0,f,c
  1722   00F9FC  3629               	rlcf	(___fldiv@grs+1)^0,f,c
  1723   00F9FE  362A               	rlcf	(___fldiv@grs+2)^0,f,c
  1724   00FA00  362B               	rlcf	(___fldiv@grs+3)^0,f,c
  1725   00FA02                     l2344:
  1726   00FA02  5019               	movf	___fldiv@a^0,w,c
  1727   00FA04  5C21               	subwf	___fldiv@rem^0,w,c
  1728   00FA06  501A               	movf	(___fldiv@a+1)^0,w,c
  1729   00FA08  5822               	subwfb	(___fldiv@rem+1)^0,w,c
  1730   00FA0A  501B               	movf	(___fldiv@a+2)^0,w,c
  1731   00FA0C  5823               	subwfb	(___fldiv@rem+2)^0,w,c
  1732   00FA0E  501C               	movf	(___fldiv@a+3)^0,w,c
  1733   00FA10  5824               	subwfb	(___fldiv@rem+3)^0,w,c
  1734   00FA12  A0D8               	btfss	status,0,c
  1735   00FA14  EF0E  F07D         	goto	u2771
  1736   00FA18  EF10  F07D         	goto	u2770
  1737   00FA1C                     u2771:
  1738   00FA1C  EF19  F07D         	goto	l2350
  1739   00FA20                     u2770:
  1740   00FA20  8C2B               	bsf	(___fldiv@grs+3)^0,6,c
  1741   00FA22  5019               	movf	___fldiv@a^0,w,c
  1742   00FA24  5E21               	subwf	___fldiv@rem^0,f,c
  1743   00FA26  501A               	movf	(___fldiv@a+1)^0,w,c
  1744   00FA28  5A22               	subwfb	(___fldiv@rem+1)^0,f,c
  1745   00FA2A  501B               	movf	(___fldiv@a+2)^0,w,c
  1746   00FA2C  5A23               	subwfb	(___fldiv@rem+2)^0,f,c
  1747   00FA2E  501C               	movf	(___fldiv@a+3)^0,w,c
  1748   00FA30  5A24               	subwfb	(___fldiv@rem+3)^0,f,c
  1749   00FA32                     l2350:
  1750   00FA32  2A2D               	incf	___fldiv@aexp^0,f,c
  1751   00FA34                     l951:
  1752   00FA34  0E19               	movlw	25
  1753   00FA36  642D               	cpfsgt	___fldiv@aexp^0,c
  1754   00FA38  EF20  F07D         	goto	u2781
  1755   00FA3C  EF22  F07D         	goto	u2780
  1756   00FA40                     u2781:
  1757   00FA40  EFE2  F07C         	goto	l2336
  1758   00FA44                     u2780:
  1759   00FA44  5021               	movf	___fldiv@rem^0,w,c
  1760   00FA46  1022               	iorwf	(___fldiv@rem+1)^0,w,c
  1761   00FA48  1023               	iorwf	(___fldiv@rem+2)^0,w,c
  1762   00FA4A  1024               	iorwf	(___fldiv@rem+3)^0,w,c
  1763   00FA4C  B4D8               	btfsc	status,2,c
  1764   00FA4E  EF2B  F07D         	goto	u2791
  1765   00FA52  EF2D  F07D         	goto	u2790
  1766   00FA56                     u2791:
  1767   00FA56  EF45  F07D         	goto	l2362
  1768   00FA5A                     u2790:
  1769   00FA5A  8028               	bsf	___fldiv@grs^0,0,c
  1770   00FA5C  EF45  F07D         	goto	l2362
  1771   00FA60                     l2356:
  1772   00FA60  90D8               	bcf	status,0,c
  1773   00FA62  3615               	rlcf	___fldiv@b^0,f,c
  1774   00FA64  3616               	rlcf	(___fldiv@b+1)^0,f,c
  1775   00FA66  3617               	rlcf	(___fldiv@b+2)^0,f,c
  1776   00FA68  3618               	rlcf	(___fldiv@b+3)^0,f,c
  1777   00FA6A  AE2B               	btfss	(___fldiv@grs+3)^0,7,c
  1778   00FA6C  EF3A  F07D         	goto	u2801
  1779   00FA70  EF3C  F07D         	goto	u2800
  1780   00FA74                     u2801:
  1781   00FA74  EF3D  F07D         	goto	l960
  1782   00FA78                     u2800:
  1783   00FA78  8015               	bsf	___fldiv@b^0,0,c
  1784   00FA7A                     l960:
  1785   00FA7A  90D8               	bcf	status,0,c
  1786   00FA7C  3628               	rlcf	___fldiv@grs^0,f,c
  1787   00FA7E  3629               	rlcf	(___fldiv@grs+1)^0,f,c
  1788   00FA80  362A               	rlcf	(___fldiv@grs+2)^0,f,c
  1789   00FA82  362B               	rlcf	(___fldiv@grs+3)^0,f,c
  1790   00FA84  0626               	decf	___fldiv@new_exp^0,f,c
  1791   00FA86  A0D8               	btfss	status,0,c
  1792   00FA88  0627               	decf	(___fldiv@new_exp+1)^0,f,c
  1793   00FA8A                     l2362:
  1794   00FA8A  AE17               	btfss	(___fldiv@b+2)^0,7,c
  1795   00FA8C  EF4A  F07D         	goto	u2811
  1796   00FA90  EF4C  F07D         	goto	u2810
  1797   00FA94                     u2811:
  1798   00FA94  EF30  F07D         	goto	l2356
  1799   00FA98                     u2810:
  1800   00FA98  0E00               	movlw	0
  1801   00FA9A  6E2D               	movwf	___fldiv@aexp^0,c
  1802   00FA9C  AE2B               	btfss	(___fldiv@grs+3)^0,7,c
  1803   00FA9E  EF53  F07D         	goto	u2821
  1804   00FAA2  EF55  F07D         	goto	u2820
  1805   00FAA6                     u2821:
  1806   00FAA6  EF79  F07D         	goto	l962
  1807   00FAAA                     u2820:
  1808   00FAAA  0EFF               	movlw	255
  1809   00FAAC  1428               	andwf	___fldiv@grs^0,w,c
  1810   00FAAE  6E1D               	movwf	??___fldiv^0,c
  1811   00FAB0  0EFF               	movlw	255
  1812   00FAB2  1429               	andwf	(___fldiv@grs+1)^0,w,c
  1813   00FAB4  6E1E               	movwf	(??___fldiv+1)^0,c
  1814   00FAB6  0EFF               	movlw	255
  1815   00FAB8  142A               	andwf	(___fldiv@grs+2)^0,w,c
  1816   00FABA  6E1F               	movwf	(??___fldiv+2)^0,c
  1817   00FABC  0E7F               	movlw	127
  1818   00FABE  142B               	andwf	(___fldiv@grs+3)^0,w,c
  1819   00FAC0  6E20               	movwf	(??___fldiv+3)^0,c
  1820   00FAC2  501D               	movf	??___fldiv^0,w,c
  1821   00FAC4  101E               	iorwf	(??___fldiv+1)^0,w,c
  1822   00FAC6  101F               	iorwf	(??___fldiv+2)^0,w,c
  1823   00FAC8  1020               	iorwf	(??___fldiv+3)^0,w,c
  1824   00FACA  B4D8               	btfsc	status,2,c
  1825   00FACC  EF6A  F07D         	goto	u2831
  1826   00FAD0  EF6C  F07D         	goto	u2830
  1827   00FAD4                     u2831:
  1828   00FAD4  EF70  F07D         	goto	l963
  1829   00FAD8                     u2830:
  1830   00FAD8                     l2370:
  1831   00FAD8  0E01               	movlw	1
  1832   00FADA  6E2D               	movwf	___fldiv@aexp^0,c
  1833   00FADC  EF79  F07D         	goto	l962
  1834   00FAE0                     l963:
  1835   00FAE0  A015               	btfss	___fldiv@b^0,0,c
  1836   00FAE2  EF75  F07D         	goto	u2841
  1837   00FAE6  EF77  F07D         	goto	u2840
  1838   00FAEA                     u2841:
  1839   00FAEA  EF79  F07D         	goto	l962
  1840   00FAEE                     u2840:
  1841   00FAEE  EF6C  F07D         	goto	l2370
  1842   00FAF2                     l962:
  1843   00FAF2  502D               	movf	___fldiv@aexp^0,w,c
  1844   00FAF4  B4D8               	btfsc	status,2,c
  1845   00FAF6  EF7F  F07D         	goto	u2851
  1846   00FAFA  EF81  F07D         	goto	u2850
  1847   00FAFE                     u2851:
  1848   00FAFE  EFA5  F07D         	goto	l2382
  1849   00FB02                     u2850:
  1850   00FB02  0E01               	movlw	1
  1851   00FB04  2615               	addwf	___fldiv@b^0,f,c
  1852   00FB06  0E00               	movlw	0
  1853   00FB08  2216               	addwfc	(___fldiv@b+1)^0,f,c
  1854   00FB0A  2217               	addwfc	(___fldiv@b+2)^0,f,c
  1855   00FB0C  2218               	addwfc	(___fldiv@b+3)^0,f,c
  1856   00FB0E  A018               	btfss	(___fldiv@b+3)^0,0,c
  1857   00FB10  EF8C  F07D         	goto	u2861
  1858   00FB14  EF8E  F07D         	goto	u2860
  1859   00FB18                     u2861:
  1860   00FB18  EFA5  F07D         	goto	l2382
  1861   00FB1C                     u2860:
  1862   00FB1C  C015  F01D         	movff	___fldiv@b,??___fldiv
  1863   00FB20  C016  F01E         	movff	___fldiv@b+1,??___fldiv+1
  1864   00FB24  C017  F01F         	movff	___fldiv@b+2,??___fldiv+2
  1865   00FB28  C018  F020         	movff	___fldiv@b+3,??___fldiv+3
  1866   00FB2C  3420               	rlcf	(??___fldiv+3)^0,w,c
  1867   00FB2E  3220               	rrcf	(??___fldiv+3)^0,f,c
  1868   00FB30  321F               	rrcf	(??___fldiv+2)^0,f,c
  1869   00FB32  321E               	rrcf	(??___fldiv+1)^0,f,c
  1870   00FB34  321D               	rrcf	??___fldiv^0,f,c
  1871   00FB36  C01D  F015         	movff	??___fldiv,___fldiv@b
  1872   00FB3A  C01E  F016         	movff	??___fldiv+1,___fldiv@b+1
  1873   00FB3E  C01F  F017         	movff	??___fldiv+2,___fldiv@b+2
  1874   00FB42  C020  F018         	movff	??___fldiv+3,___fldiv@b+3
  1875   00FB46  4A26               	infsnz	___fldiv@new_exp^0,f,c
  1876   00FB48  2A27               	incf	(___fldiv@new_exp+1)^0,f,c
  1877   00FB4A                     l2382:
  1878   00FB4A  BE27               	btfsc	(___fldiv@new_exp+1)^0,7,c
  1879   00FB4C  EFB0  F07D         	goto	u2871
  1880   00FB50  5027               	movf	(___fldiv@new_exp+1)^0,w,c
  1881   00FB52  E108               	bnz	u2870
  1882   00FB54  2826               	incf	___fldiv@new_exp^0,w,c
  1883   00FB56  A0D8               	btfss	status,0,c
  1884   00FB58  EFB0  F07D         	goto	u2871
  1885   00FB5C  EFB2  F07D         	goto	u2870
  1886   00FB60                     u2871:
  1887   00FB60  EFBD  F07D         	goto	l2386
  1888   00FB64                     u2870:
  1889   00FB64  0E00               	movlw	0
  1890   00FB66  6E27               	movwf	(___fldiv@new_exp+1)^0,c
  1891   00FB68  6826               	setf	___fldiv@new_exp^0,c
  1892   00FB6A  0E00               	movlw	0
  1893   00FB6C  6E15               	movwf	___fldiv@b^0,c
  1894   00FB6E  0E00               	movlw	0
  1895   00FB70  6E16               	movwf	(___fldiv@b+1)^0,c
  1896   00FB72  0E00               	movlw	0
  1897   00FB74  6E17               	movwf	(___fldiv@b+2)^0,c
  1898   00FB76  0E00               	movlw	0
  1899   00FB78  6E18               	movwf	(___fldiv@b+3)^0,c
  1900   00FB7A                     l2386:
  1901   00FB7A  BE27               	btfsc	(___fldiv@new_exp+1)^0,7,c
  1902   00FB7C  EFCA  F07D         	goto	u2880
  1903   00FB80  5027               	movf	(___fldiv@new_exp+1)^0,w,c
  1904   00FB82  E106               	bnz	u2881
  1905   00FB84  0426               	decf	___fldiv@new_exp^0,w,c
  1906   00FB86  B0D8               	btfsc	status,0,c
  1907   00FB88  EFC8  F07D         	goto	u2881
  1908   00FB8C  EFCA  F07D         	goto	u2880
  1909   00FB90                     u2881:
  1910   00FB90  EFD8  F07D         	goto	l2390
  1911   00FB94                     u2880:
  1912   00FB94  0E00               	movlw	0
  1913   00FB96  6E27               	movwf	(___fldiv@new_exp+1)^0,c
  1914   00FB98  0E00               	movlw	0
  1915   00FB9A  6E26               	movwf	___fldiv@new_exp^0,c
  1916   00FB9C  0E00               	movlw	0
  1917   00FB9E  6E15               	movwf	___fldiv@b^0,c
  1918   00FBA0  0E00               	movlw	0
  1919   00FBA2  6E16               	movwf	(___fldiv@b+1)^0,c
  1920   00FBA4  0E00               	movlw	0
  1921   00FBA6  6E17               	movwf	(___fldiv@b+2)^0,c
  1922   00FBA8  0E00               	movlw	0
  1923   00FBAA  6E18               	movwf	(___fldiv@b+3)^0,c
  1924   00FBAC  0E00               	movlw	0
  1925   00FBAE  6E25               	movwf	___fldiv@sign^0,c
  1926   00FBB0                     l2390:
  1927   00FBB0  C026  F02C         	movff	___fldiv@new_exp,___fldiv@bexp
  1928   00FBB4  A02C               	btfss	___fldiv@bexp^0,0,c
  1929   00FBB6  EFDF  F07D         	goto	u2891
  1930   00FBBA  EFE1  F07D         	goto	u2890
  1931   00FBBE                     u2891:
  1932   00FBBE  EFE4  F07D         	goto	l2396
  1933   00FBC2                     u2890:
  1934   00FBC2  8E17               	bsf	(___fldiv@b+2)^0,7,c
  1935   00FBC4  EFE5  F07D         	goto	l2398
  1936   00FBC8                     l2396:
  1937   00FBC8  9E17               	bcf	(___fldiv@b+2)^0,7,c
  1938   00FBCA                     l2398:
  1939   00FBCA  90D8               	bcf	status,0,c
  1940   00FBCC  302C               	rrcf	___fldiv@bexp^0,w,c
  1941   00FBCE  6E18               	movwf	(___fldiv@b+3)^0,c
  1942   00FBD0  EF9B  F07C         	goto	l2312
  1943   00FBD4                     l949:
  1944   00FBD4  0012               	return		;funcret
  1945   00FBD6                     __end_of___fldiv:
  1946                           	callstack 0
  1947                           
  1948 ;; *************** function _DIO_VidSetPinValue *****************
  1949 ;; Defined at:
  1950 ;;		line 66 in file "E:/MVM_Medical_Vending_Machine/MPLAB_FrameWork/03_MCAL/DIO_prog.c"
  1951 ;; Parameters:    Size  Location     Type
  1952 ;;  u8PortIdCopy    1    wreg     unsigned char 
  1953 ;;  u8PinIdCopy     1    0[COMRAM] unsigned char 
  1954 ;;  u8PinValCopy    1    1[COMRAM] unsigned char 
  1955 ;; Auto vars:     Size  Location     Type
  1956 ;;  u8PortIdCopy    1    4[COMRAM] unsigned char 
  1957 ;; Return value:  Size  Location     Type
  1958 ;;                  1    wreg      void 
  1959 ;; Registers used:
  1960 ;;		wreg, status,2, status,0
  1961 ;; Tracked objects:
  1962 ;;		On entry : 0/0
  1963 ;;		On exit  : 0/0
  1964 ;;		Unchanged: 0/0
  1965 ;; Data sizes:     COMRAM   BANK0   BANK1   BANK2   BANK3   BANK4   BANK5   BANK6   BANK7   BANK8   BANK9  BANK10  BANK1
      +1  BANK12  BANK13  BANK14  BANK15
  1966 ;;      Params:         2       0       0       0       0       0       0       0       0       0       0       0       
      +0       0       0       0       0
  1967 ;;      Locals:         1       0       0       0       0       0       0       0       0       0       0       0       
      +0       0       0       0       0
  1968 ;;      Temps:          2       0       0       0       0       0       0       0       0       0       0       0       
      +0       0       0       0       0
  1969 ;;      Totals:         5       0       0       0       0       0       0       0       0       0       0       0       
      +0       0       0       0       0
  1970 ;;Total ram usage:        5 bytes
  1971 ;; Hardware stack levels used: 1
  1972 ;; This function calls:
  1973 ;;		Nothing
  1974 ;; This function is called by:
  1975 ;;		_main
  1976 ;; This function uses a non-reentrant model
  1977 ;;
  1978                           
  1979                           	psect	text6
  1980   00F0FC                     __ptext6:
  1981                           	callstack 0
  1982   00F0FC                     _DIO_VidSetPinValue:
  1983                           	callstack 30
  1984                           
  1985                           ;incstack = 0
  1986                           ;DIO_VidSetPinValue@u8PortIdCopy stored from wreg
  1987   00F0FC  6E05               	movwf	DIO_VidSetPinValue@u8PortIdCopy^0,c
  1988   00F0FE                     
  1989                           ;E:/MVM_Medical_Vending_Machine/MPLAB_FrameWork/03_MCAL/DIO_prog.c: 66: void DIO_VidSetP
      +                          inValue(uint8 u8PortIdCopy , uint8 u8PinIdCopy, uint8 u8PinValCopy);E:/MVM_Medical_Vendi
      +                          ng_Machine/MPLAB_FrameWork/03_MCAL/DIO_prog.c: 67: {;E:/MVM_Medical_Vending_Machine/MPLA
      +                          B_FrameWork/03_MCAL/DIO_prog.c: 69:  if ((u8PortIdCopy <= PORT_E) && (u8PinIdCopy <= PIN
      +                          7))
  1990   00F0FE  0E05               	movlw	5
  1991   00F100  6005               	cpfslt	DIO_VidSetPinValue@u8PortIdCopy^0,c
  1992   00F102  EF85  F078         	goto	u2531
  1993   00F106  EF87  F078         	goto	u2530
  1994   00F10A                     u2531:
  1995   00F10A  EF8A  F079         	goto	l106
  1996   00F10E                     u2530:
  1997   00F10E  0E08               	movlw	8
  1998   00F110  6001               	cpfslt	DIO_VidSetPinValue@u8PinIdCopy^0,c
  1999   00F112  EF8D  F078         	goto	u2541
  2000   00F116  EF8F  F078         	goto	u2540
  2001   00F11A                     u2541:
  2002   00F11A  EF8A  F079         	goto	l106
  2003   00F11E                     u2540:
  2004   00F11E                     
  2005                           ;E:/MVM_Medical_Vending_Machine/MPLAB_FrameWork/03_MCAL/DIO_prog.c: 70:  {;E:/MVM_Medica
      +                          l_Vending_Machine/MPLAB_FrameWork/03_MCAL/DIO_prog.c: 71:   if (u8PinValCopy == 1)
  2006   00F11E  0402               	decf	DIO_VidSetPinValue@u8PinValCopy^0,w,c
  2007   00F120  A4D8               	btfss	status,2,c
  2008   00F122  EF95  F078         	goto	u2551
  2009   00F126  EF97  F078         	goto	u2550
  2010   00F12A                     u2551:
  2011   00F12A  EF0A  F079         	goto	l2236
  2012   00F12E                     u2550:
  2013   00F12E  EFE9  F078         	goto	l2234
  2014   00F132                     l2222:
  2015   00F132  C001  F003         	movff	DIO_VidSetPinValue@u8PinIdCopy,??_DIO_VidSetPinValue
  2016   00F136  0E01               	movlw	1
  2017   00F138  6E04               	movwf	(??_DIO_VidSetPinValue+1)^0,c
  2018   00F13A  2A03               	incf	??_DIO_VidSetPinValue^0,f,c
  2019   00F13C  EFA2  F078         	goto	u2564
  2020   00F140                     u2565:
  2021   00F140  90D8               	bcf	status,0,c
  2022   00F142  3604               	rlcf	(??_DIO_VidSetPinValue+1)^0,f,c
  2023   00F144                     u2564:
  2024   00F144  2E03               	decfsz	??_DIO_VidSetPinValue^0,f,c
  2025   00F146  EFA0  F078         	goto	u2565
  2026   00F14A  5004               	movf	(??_DIO_VidSetPinValue+1)^0,w,c
  2027   00F14C  1280               	iorwf	128,f,c	;volatile
  2028   00F14E  EF8A  F079         	goto	l106
  2029   00F152                     l2224:
  2030   00F152  C001  F003         	movff	DIO_VidSetPinValue@u8PinIdCopy,??_DIO_VidSetPinValue
  2031   00F156  0E01               	movlw	1
  2032   00F158  6E04               	movwf	(??_DIO_VidSetPinValue+1)^0,c
  2033   00F15A  2A03               	incf	??_DIO_VidSetPinValue^0,f,c
  2034   00F15C  EFB2  F078         	goto	u2574
  2035   00F160                     u2575:
  2036   00F160  90D8               	bcf	status,0,c
  2037   00F162  3604               	rlcf	(??_DIO_VidSetPinValue+1)^0,f,c
  2038   00F164                     u2574:
  2039   00F164  2E03               	decfsz	??_DIO_VidSetPinValue^0,f,c
  2040   00F166  EFB0  F078         	goto	u2575
  2041   00F16A  5004               	movf	(??_DIO_VidSetPinValue+1)^0,w,c
  2042   00F16C  1281               	iorwf	129,f,c	;volatile
  2043   00F16E  EF8A  F079         	goto	l106
  2044   00F172                     l2226:
  2045   00F172  C001  F003         	movff	DIO_VidSetPinValue@u8PinIdCopy,??_DIO_VidSetPinValue
  2046   00F176  0E01               	movlw	1
  2047   00F178  6E04               	movwf	(??_DIO_VidSetPinValue+1)^0,c
  2048   00F17A  2A03               	incf	??_DIO_VidSetPinValue^0,f,c
  2049   00F17C  EFC2  F078         	goto	u2584
  2050   00F180                     u2585:
  2051   00F180  90D8               	bcf	status,0,c
  2052   00F182  3604               	rlcf	(??_DIO_VidSetPinValue+1)^0,f,c
  2053   00F184                     u2584:
  2054   00F184  2E03               	decfsz	??_DIO_VidSetPinValue^0,f,c
  2055   00F186  EFC0  F078         	goto	u2585
  2056   00F18A  5004               	movf	(??_DIO_VidSetPinValue+1)^0,w,c
  2057   00F18C  1282               	iorwf	130,f,c	;volatile
  2058   00F18E  EF8A  F079         	goto	l106
  2059   00F192                     l2228:
  2060   00F192  C001  F003         	movff	DIO_VidSetPinValue@u8PinIdCopy,??_DIO_VidSetPinValue
  2061   00F196  0E01               	movlw	1
  2062   00F198  6E04               	movwf	(??_DIO_VidSetPinValue+1)^0,c
  2063   00F19A  2A03               	incf	??_DIO_VidSetPinValue^0,f,c
  2064   00F19C  EFD2  F078         	goto	u2594
  2065   00F1A0                     u2595:
  2066   00F1A0  90D8               	bcf	status,0,c
  2067   00F1A2  3604               	rlcf	(??_DIO_VidSetPinValue+1)^0,f,c
  2068   00F1A4                     u2594:
  2069   00F1A4  2E03               	decfsz	??_DIO_VidSetPinValue^0,f,c
  2070   00F1A6  EFD0  F078         	goto	u2595
  2071   00F1AA  5004               	movf	(??_DIO_VidSetPinValue+1)^0,w,c
  2072   00F1AC  1283               	iorwf	131,f,c	;volatile
  2073   00F1AE  EF8A  F079         	goto	l106
  2074   00F1B2                     l2230:
  2075   00F1B2  C001  F003         	movff	DIO_VidSetPinValue@u8PinIdCopy,??_DIO_VidSetPinValue
  2076   00F1B6  0E01               	movlw	1
  2077   00F1B8  6E04               	movwf	(??_DIO_VidSetPinValue+1)^0,c
  2078   00F1BA  2A03               	incf	??_DIO_VidSetPinValue^0,f,c
  2079   00F1BC  EFE2  F078         	goto	u2604
  2080   00F1C0                     u2605:
  2081   00F1C0  90D8               	bcf	status,0,c
  2082   00F1C2  3604               	rlcf	(??_DIO_VidSetPinValue+1)^0,f,c
  2083   00F1C4                     u2604:
  2084   00F1C4  2E03               	decfsz	??_DIO_VidSetPinValue^0,f,c
  2085   00F1C6  EFE0  F078         	goto	u2605
  2086   00F1CA  5004               	movf	(??_DIO_VidSetPinValue+1)^0,w,c
  2087   00F1CC  1284               	iorwf	132,f,c	;volatile
  2088   00F1CE  EF8A  F079         	goto	l106
  2089   00F1D2                     l2234:
  2090   00F1D2  5005               	movf	DIO_VidSetPinValue@u8PortIdCopy^0,w,c
  2091   00F1D4  6E03               	movwf	??_DIO_VidSetPinValue^0,c
  2092   00F1D6  6A04               	clrf	(??_DIO_VidSetPinValue+1)^0,c
  2093                           
  2094                           ; Switch on 2 bytes has been partitioned into a top level switch of size 1, and 1 sub-sw
      +                          itches
  2095                           ; Switch size 1, requested type "simple"
  2096                           ; Number of cases is 1, Range of values is 0 to 0
  2097                           ; switch strategies available:
  2098                           ; Name         Instructions Cycles
  2099                           ; simple_byte            4     3 (average)
  2100                           ;	Chosen strategy is simple_byte
  2101   00F1D8  5004               	movf	(??_DIO_VidSetPinValue+1)^0,w,c
  2102   00F1DA  0A00               	xorlw	0	; case 0
  2103   00F1DC  B4D8               	btfsc	status,2,c
  2104   00F1DE  EFF3  F078         	goto	l2660
  2105   00F1E2  EF8A  F079         	goto	l106
  2106   00F1E6                     l2660:
  2107                           
  2108                           ; Switch size 1, requested type "simple"
  2109                           ; Number of cases is 5, Range of values is 0 to 4
  2110                           ; switch strategies available:
  2111                           ; Name         Instructions Cycles
  2112                           ; simple_byte           16     9 (average)
  2113                           ;	Chosen strategy is simple_byte
  2114   00F1E6  5003               	movf	??_DIO_VidSetPinValue^0,w,c
  2115   00F1E8  0A00               	xorlw	0	; case 0
  2116   00F1EA  B4D8               	btfsc	status,2,c
  2117   00F1EC  EF99  F078         	goto	l2222
  2118   00F1F0  0A01               	xorlw	1	; case 1
  2119   00F1F2  B4D8               	btfsc	status,2,c
  2120   00F1F4  EFA9  F078         	goto	l2224
  2121   00F1F8  0A03               	xorlw	3	; case 2
  2122   00F1FA  B4D8               	btfsc	status,2,c
  2123   00F1FC  EFB9  F078         	goto	l2226
  2124   00F200  0A01               	xorlw	1	; case 3
  2125   00F202  B4D8               	btfsc	status,2,c
  2126   00F204  EFC9  F078         	goto	l2228
  2127   00F208  0A07               	xorlw	7	; case 4
  2128   00F20A  B4D8               	btfsc	status,2,c
  2129   00F20C  EFD9  F078         	goto	l2230
  2130   00F210  EF8A  F079         	goto	l106
  2131   00F214                     l2236:
  2132   00F214  5002               	movf	DIO_VidSetPinValue@u8PinValCopy^0,w,c
  2133   00F216  A4D8               	btfss	status,2,c
  2134   00F218  EF10  F079         	goto	u2611
  2135   00F21C  EF12  F079         	goto	u2610
  2136   00F220                     u2611:
  2137   00F220  EF8A  F079         	goto	l95
  2138   00F224                     u2610:
  2139   00F224  EF69  F079         	goto	l2252
  2140   00F228                     l2240:
  2141   00F228  C001  F003         	movff	DIO_VidSetPinValue@u8PinIdCopy,??_DIO_VidSetPinValue
  2142   00F22C  0E01               	movlw	1
  2143   00F22E  6E04               	movwf	(??_DIO_VidSetPinValue+1)^0,c
  2144   00F230  2A03               	incf	??_DIO_VidSetPinValue^0,f,c
  2145   00F232  EF1D  F079         	goto	u2624
  2146   00F236                     u2625:
  2147   00F236  90D8               	bcf	status,0,c
  2148   00F238  3604               	rlcf	(??_DIO_VidSetPinValue+1)^0,f,c
  2149   00F23A                     u2624:
  2150   00F23A  2E03               	decfsz	??_DIO_VidSetPinValue^0,f,c
  2151   00F23C  EF1B  F079         	goto	u2625
  2152   00F240  5004               	movf	(??_DIO_VidSetPinValue+1)^0,w,c
  2153   00F242  0AFF               	xorlw	255
  2154   00F244  1680               	andwf	128,f,c	;volatile
  2155   00F246  EF8A  F079         	goto	l106
  2156   00F24A                     l2242:
  2157   00F24A  C001  F003         	movff	DIO_VidSetPinValue@u8PinIdCopy,??_DIO_VidSetPinValue
  2158   00F24E  0E01               	movlw	1
  2159   00F250  6E04               	movwf	(??_DIO_VidSetPinValue+1)^0,c
  2160   00F252  2A03               	incf	??_DIO_VidSetPinValue^0,f,c
  2161   00F254  EF2E  F079         	goto	u2634
  2162   00F258                     u2635:
  2163   00F258  90D8               	bcf	status,0,c
  2164   00F25A  3604               	rlcf	(??_DIO_VidSetPinValue+1)^0,f,c
  2165   00F25C                     u2634:
  2166   00F25C  2E03               	decfsz	??_DIO_VidSetPinValue^0,f,c
  2167   00F25E  EF2C  F079         	goto	u2635
  2168   00F262  5004               	movf	(??_DIO_VidSetPinValue+1)^0,w,c
  2169   00F264  0AFF               	xorlw	255
  2170   00F266  1681               	andwf	129,f,c	;volatile
  2171   00F268  EF8A  F079         	goto	l106
  2172   00F26C                     l2244:
  2173   00F26C  C001  F003         	movff	DIO_VidSetPinValue@u8PinIdCopy,??_DIO_VidSetPinValue
  2174   00F270  0E01               	movlw	1
  2175   00F272  6E04               	movwf	(??_DIO_VidSetPinValue+1)^0,c
  2176   00F274  2A03               	incf	??_DIO_VidSetPinValue^0,f,c
  2177   00F276  EF3F  F079         	goto	u2644
  2178   00F27A                     u2645:
  2179   00F27A  90D8               	bcf	status,0,c
  2180   00F27C  3604               	rlcf	(??_DIO_VidSetPinValue+1)^0,f,c
  2181   00F27E                     u2644:
  2182   00F27E  2E03               	decfsz	??_DIO_VidSetPinValue^0,f,c
  2183   00F280  EF3D  F079         	goto	u2645
  2184   00F284  5004               	movf	(??_DIO_VidSetPinValue+1)^0,w,c
  2185   00F286  0AFF               	xorlw	255
  2186   00F288  1682               	andwf	130,f,c	;volatile
  2187   00F28A  EF8A  F079         	goto	l106
  2188   00F28E                     l2246:
  2189   00F28E  C001  F003         	movff	DIO_VidSetPinValue@u8PinIdCopy,??_DIO_VidSetPinValue
  2190   00F292  0E01               	movlw	1
  2191   00F294  6E04               	movwf	(??_DIO_VidSetPinValue+1)^0,c
  2192   00F296  2A03               	incf	??_DIO_VidSetPinValue^0,f,c
  2193   00F298  EF50  F079         	goto	u2654
  2194   00F29C                     u2655:
  2195   00F29C  90D8               	bcf	status,0,c
  2196   00F29E  3604               	rlcf	(??_DIO_VidSetPinValue+1)^0,f,c
  2197   00F2A0                     u2654:
  2198   00F2A0  2E03               	decfsz	??_DIO_VidSetPinValue^0,f,c
  2199   00F2A2  EF4E  F079         	goto	u2655
  2200   00F2A6  5004               	movf	(??_DIO_VidSetPinValue+1)^0,w,c
  2201   00F2A8  0AFF               	xorlw	255
  2202   00F2AA  1683               	andwf	131,f,c	;volatile
  2203   00F2AC  EF8A  F079         	goto	l106
  2204   00F2B0                     l2248:
  2205   00F2B0  C001  F003         	movff	DIO_VidSetPinValue@u8PinIdCopy,??_DIO_VidSetPinValue
  2206   00F2B4  0E01               	movlw	1
  2207   00F2B6  6E04               	movwf	(??_DIO_VidSetPinValue+1)^0,c
  2208   00F2B8  2A03               	incf	??_DIO_VidSetPinValue^0,f,c
  2209   00F2BA  EF61  F079         	goto	u2664
  2210   00F2BE                     u2665:
  2211   00F2BE  90D8               	bcf	status,0,c
  2212   00F2C0  3604               	rlcf	(??_DIO_VidSetPinValue+1)^0,f,c
  2213   00F2C2                     u2664:
  2214   00F2C2  2E03               	decfsz	??_DIO_VidSetPinValue^0,f,c
  2215   00F2C4  EF5F  F079         	goto	u2665
  2216   00F2C8  5004               	movf	(??_DIO_VidSetPinValue+1)^0,w,c
  2217   00F2CA  0AFF               	xorlw	255
  2218   00F2CC  1684               	andwf	132,f,c	;volatile
  2219   00F2CE  EF8A  F079         	goto	l106
  2220   00F2D2                     l2252:
  2221   00F2D2  5005               	movf	DIO_VidSetPinValue@u8PortIdCopy^0,w,c
  2222   00F2D4  6E03               	movwf	??_DIO_VidSetPinValue^0,c
  2223   00F2D6  6A04               	clrf	(??_DIO_VidSetPinValue+1)^0,c
  2224                           
  2225                           ; Switch on 2 bytes has been partitioned into a top level switch of size 1, and 1 sub-sw
      +                          itches
  2226                           ; Switch size 1, requested type "simple"
  2227                           ; Number of cases is 1, Range of values is 0 to 0
  2228                           ; switch strategies available:
  2229                           ; Name         Instructions Cycles
  2230                           ; simple_byte            4     3 (average)
  2231                           ;	Chosen strategy is simple_byte
  2232   00F2D8  5004               	movf	(??_DIO_VidSetPinValue+1)^0,w,c
  2233   00F2DA  0A00               	xorlw	0	; case 0
  2234   00F2DC  B4D8               	btfsc	status,2,c
  2235   00F2DE  EF73  F079         	goto	l2662
  2236   00F2E2  EF8A  F079         	goto	l95
  2237   00F2E6                     l2662:
  2238                           
  2239                           ; Switch size 1, requested type "simple"
  2240                           ; Number of cases is 5, Range of values is 0 to 4
  2241                           ; switch strategies available:
  2242                           ; Name         Instructions Cycles
  2243                           ; simple_byte           16     9 (average)
  2244                           ;	Chosen strategy is simple_byte
  2245   00F2E6  5003               	movf	??_DIO_VidSetPinValue^0,w,c
  2246   00F2E8  0A00               	xorlw	0	; case 0
  2247   00F2EA  B4D8               	btfsc	status,2,c
  2248   00F2EC  EF14  F079         	goto	l2240
  2249   00F2F0  0A01               	xorlw	1	; case 1
  2250   00F2F2  B4D8               	btfsc	status,2,c
  2251   00F2F4  EF25  F079         	goto	l2242
  2252   00F2F8  0A03               	xorlw	3	; case 2
  2253   00F2FA  B4D8               	btfsc	status,2,c
  2254   00F2FC  EF36  F079         	goto	l2244
  2255   00F300  0A01               	xorlw	1	; case 3
  2256   00F302  B4D8               	btfsc	status,2,c
  2257   00F304  EF47  F079         	goto	l2246
  2258   00F308  0A07               	xorlw	7	; case 4
  2259   00F30A  B4D8               	btfsc	status,2,c
  2260   00F30C  EF58  F079         	goto	l2248
  2261   00F310  EF8A  F079         	goto	l95
  2262   00F314                     l95:
  2263   00F314                     l106:
  2264   00F314  0012               	return		;funcret
  2265   00F316                     __end_of_DIO_VidSetPinValue:
  2266                           	callstack 0
  2267                           
  2268 ;; *************** function _DIO_VidSetHalfPortDirection *****************
  2269 ;; Defined at:
  2270 ;;		line 189 in file "E:/MVM_Medical_Vending_Machine/MPLAB_FrameWork/03_MCAL/DIO_prog.c"
  2271 ;; Parameters:    Size  Location     Type
  2272 ;;  u8PortId        1    wreg     unsigned char 
  2273 ;;  u8PortHalf      1    0[COMRAM] unsigned char 
  2274 ;;  u8PortDir       1    1[COMRAM] unsigned char 
  2275 ;; Auto vars:     Size  Location     Type
  2276 ;;  u8PortId        1    9[COMRAM] unsigned char 
  2277 ;;  u8PinIdCopy     1   10[COMRAM] unsigned char 
  2278 ;; Return value:  Size  Location     Type
  2279 ;;                  1    wreg      void 
  2280 ;; Registers used:
  2281 ;;		wreg, status,2, status,0, prodl, prodh
  2282 ;; Tracked objects:
  2283 ;;		On entry : 0/0
  2284 ;;		On exit  : 0/0
  2285 ;;		Unchanged: 0/0
  2286 ;; Data sizes:     COMRAM   BANK0   BANK1   BANK2   BANK3   BANK4   BANK5   BANK6   BANK7   BANK8   BANK9  BANK10  BANK1
      +1  BANK12  BANK13  BANK14  BANK15
  2287 ;;      Params:         2       0       0       0       0       0       0       0       0       0       0       0       
      +0       0       0       0       0
  2288 ;;      Locals:         2       0       0       0       0       0       0       0       0       0       0       0       
      +0       0       0       0       0
  2289 ;;      Temps:          7       0       0       0       0       0       0       0       0       0       0       0       
      +0       0       0       0       0
  2290 ;;      Totals:        11       0       0       0       0       0       0       0       0       0       0       0       
      +0       0       0       0       0
  2291 ;;Total ram usage:       11 bytes
  2292 ;; Hardware stack levels used: 1
  2293 ;; This function calls:
  2294 ;;		Nothing
  2295 ;; This function is called by:
  2296 ;;		_main
  2297 ;; This function uses a non-reentrant model
  2298 ;;
  2299                           
  2300                           	psect	text7
  2301   00F5A6                     __ptext7:
  2302                           	callstack 0
  2303   00F5A6                     _DIO_VidSetHalfPortDirection:
  2304                           	callstack 30
  2305                           
  2306                           ;incstack = 0
  2307                           ;DIO_VidSetHalfPortDirection@u8PortId stored from wreg
  2308   00F5A6  6E0A               	movwf	DIO_VidSetHalfPortDirection@u8PortId^0,c
  2309   00F5A8                     
  2310                           ;E:/MVM_Medical_Vending_Machine/MPLAB_FrameWork/03_MCAL/DIO_prog.c: 190:         for (ui
      +                          nt8 u8PinIdCopy= 4*(u8PortHalf-1) ; u8PinIdCopy<= 4*(u8PortHalf-1)+3 ;u8PinIdCopy++){
  2311   00F5A8  5001               	movf	DIO_VidSetHalfPortDirection@u8PortHalf^0,w,c
  2312   00F5AA  0D04               	mullw	4
  2313   00F5AC  50F3               	movf	243,w,c
  2314   00F5AE  0FFC               	addlw	252
  2315   00F5B0  6E0B               	movwf	DIO_VidSetHalfPortDirection@u8PinIdCopy^0,c
  2316   00F5B2  EFFC  F07B         	goto	l2188
  2317   00F5B6                     l2122:
  2318   00F5B6  5002               	movf	DIO_VidSetHalfPortDirection@u8PortDir^0,w,c
  2319   00F5B8  A4D8               	btfss	status,2,c
  2320   00F5BA  EFE1  F07A         	goto	u2301
  2321   00F5BE  EFE3  F07A         	goto	u2300
  2322   00F5C2                     u2301:
  2323   00F5C2  EFF4  F07A         	goto	l2128
  2324   00F5C6                     u2300:
  2325   00F5C6  C00B  F003         	movff	DIO_VidSetHalfPortDirection@u8PinIdCopy,??_DIO_VidSetHalfPortDirection
  2326   00F5CA  0E01               	movlw	1
  2327   00F5CC  6E04               	movwf	(??_DIO_VidSetHalfPortDirection+1)^0,c
  2328   00F5CE  2A03               	incf	??_DIO_VidSetHalfPortDirection^0,f,c
  2329   00F5D0  EFEC  F07A         	goto	u2314
  2330   00F5D4                     u2315:
  2331   00F5D4  90D8               	bcf	status,0,c
  2332   00F5D6  3604               	rlcf	(??_DIO_VidSetHalfPortDirection+1)^0,f,c
  2333   00F5D8                     u2314:
  2334   00F5D8  2E03               	decfsz	??_DIO_VidSetHalfPortDirection^0,f,c
  2335   00F5DA  EFEA  F07A         	goto	u2315
  2336   00F5DE  5004               	movf	(??_DIO_VidSetHalfPortDirection+1)^0,w,c
  2337   00F5E0  0AFF               	xorlw	255
  2338   00F5E2  1692               	andwf	146,f,c	;volatile
  2339   00F5E4  EFFB  F07B         	goto	l2186
  2340   00F5E8                     l2128:
  2341   00F5E8  0402               	decf	DIO_VidSetHalfPortDirection@u8PortDir^0,w,c
  2342   00F5EA  A4D8               	btfss	status,2,c
  2343   00F5EC  EFFA  F07A         	goto	u2321
  2344   00F5F0  EFFC  F07A         	goto	u2320
  2345   00F5F4                     u2321:
  2346   00F5F4  EF0C  F07B         	goto	l184
  2347   00F5F8                     u2320:
  2348   00F5F8  C00B  F003         	movff	DIO_VidSetHalfPortDirection@u8PinIdCopy,??_DIO_VidSetHalfPortDirection
  2349   00F5FC  0E01               	movlw	1
  2350   00F5FE  6E04               	movwf	(??_DIO_VidSetHalfPortDirection+1)^0,c
  2351   00F600  2A03               	incf	??_DIO_VidSetHalfPortDirection^0,f,c
  2352   00F602  EF05  F07B         	goto	u2334
  2353   00F606                     u2335:
  2354   00F606  90D8               	bcf	status,0,c
  2355   00F608  3604               	rlcf	(??_DIO_VidSetHalfPortDirection+1)^0,f,c
  2356   00F60A                     u2334:
  2357   00F60A  2E03               	decfsz	??_DIO_VidSetHalfPortDirection^0,f,c
  2358   00F60C  EF03  F07B         	goto	u2335
  2359   00F610  5004               	movf	(??_DIO_VidSetHalfPortDirection+1)^0,w,c
  2360   00F612  1292               	iorwf	146,f,c	;volatile
  2361   00F614  EFFB  F07B         	goto	l2186
  2362   00F618                     l184:
  2363   00F618                     l2134:
  2364   00F618  5002               	movf	DIO_VidSetHalfPortDirection@u8PortDir^0,w,c
  2365   00F61A  A4D8               	btfss	status,2,c
  2366   00F61C  EF12  F07B         	goto	u2341
  2367   00F620  EF14  F07B         	goto	u2340
  2368   00F624                     u2341:
  2369   00F624  EF25  F07B         	goto	l2140
  2370   00F628                     u2340:
  2371   00F628  C00B  F003         	movff	DIO_VidSetHalfPortDirection@u8PinIdCopy,??_DIO_VidSetHalfPortDirection
  2372   00F62C  0E01               	movlw	1
  2373   00F62E  6E04               	movwf	(??_DIO_VidSetHalfPortDirection+1)^0,c
  2374   00F630  2A03               	incf	??_DIO_VidSetHalfPortDirection^0,f,c
  2375   00F632  EF1D  F07B         	goto	u2354
  2376   00F636                     u2355:
  2377   00F636  90D8               	bcf	status,0,c
  2378   00F638  3604               	rlcf	(??_DIO_VidSetHalfPortDirection+1)^0,f,c
  2379   00F63A                     u2354:
  2380   00F63A  2E03               	decfsz	??_DIO_VidSetHalfPortDirection^0,f,c
  2381   00F63C  EF1B  F07B         	goto	u2355
  2382   00F640  5004               	movf	(??_DIO_VidSetHalfPortDirection+1)^0,w,c
  2383   00F642  0AFF               	xorlw	255
  2384   00F644  1693               	andwf	147,f,c	;volatile
  2385   00F646  EFFB  F07B         	goto	l2186
  2386   00F64A                     l2140:
  2387   00F64A  0402               	decf	DIO_VidSetHalfPortDirection@u8PortDir^0,w,c
  2388   00F64C  A4D8               	btfss	status,2,c
  2389   00F64E  EF2B  F07B         	goto	u2361
  2390   00F652  EF2D  F07B         	goto	u2360
  2391   00F656                     u2361:
  2392   00F656  EF3D  F07B         	goto	l189
  2393   00F65A                     u2360:
  2394   00F65A  C00B  F003         	movff	DIO_VidSetHalfPortDirection@u8PinIdCopy,??_DIO_VidSetHalfPortDirection
  2395   00F65E  0E01               	movlw	1
  2396   00F660  6E04               	movwf	(??_DIO_VidSetHalfPortDirection+1)^0,c
  2397   00F662  2A03               	incf	??_DIO_VidSetHalfPortDirection^0,f,c
  2398   00F664  EF36  F07B         	goto	u2374
  2399   00F668                     u2375:
  2400   00F668  90D8               	bcf	status,0,c
  2401   00F66A  3604               	rlcf	(??_DIO_VidSetHalfPortDirection+1)^0,f,c
  2402   00F66C                     u2374:
  2403   00F66C  2E03               	decfsz	??_DIO_VidSetHalfPortDirection^0,f,c
  2404   00F66E  EF34  F07B         	goto	u2375
  2405   00F672  5004               	movf	(??_DIO_VidSetHalfPortDirection+1)^0,w,c
  2406   00F674  1293               	iorwf	147,f,c	;volatile
  2407   00F676  EFFB  F07B         	goto	l2186
  2408   00F67A                     l189:
  2409   00F67A                     l2146:
  2410   00F67A  5002               	movf	DIO_VidSetHalfPortDirection@u8PortDir^0,w,c
  2411   00F67C  A4D8               	btfss	status,2,c
  2412   00F67E  EF43  F07B         	goto	u2381
  2413   00F682  EF45  F07B         	goto	u2380
  2414   00F686                     u2381:
  2415   00F686  EF56  F07B         	goto	l2152
  2416   00F68A                     u2380:
  2417   00F68A  C00B  F003         	movff	DIO_VidSetHalfPortDirection@u8PinIdCopy,??_DIO_VidSetHalfPortDirection
  2418   00F68E  0E01               	movlw	1
  2419   00F690  6E04               	movwf	(??_DIO_VidSetHalfPortDirection+1)^0,c
  2420   00F692  2A03               	incf	??_DIO_VidSetHalfPortDirection^0,f,c
  2421   00F694  EF4E  F07B         	goto	u2394
  2422   00F698                     u2395:
  2423   00F698  90D8               	bcf	status,0,c
  2424   00F69A  3604               	rlcf	(??_DIO_VidSetHalfPortDirection+1)^0,f,c
  2425   00F69C                     u2394:
  2426   00F69C  2E03               	decfsz	??_DIO_VidSetHalfPortDirection^0,f,c
  2427   00F69E  EF4C  F07B         	goto	u2395
  2428   00F6A2  5004               	movf	(??_DIO_VidSetHalfPortDirection+1)^0,w,c
  2429   00F6A4  0AFF               	xorlw	255
  2430   00F6A6  1694               	andwf	148,f,c	;volatile
  2431   00F6A8  EFFB  F07B         	goto	l2186
  2432   00F6AC                     l2152:
  2433   00F6AC  0402               	decf	DIO_VidSetHalfPortDirection@u8PortDir^0,w,c
  2434   00F6AE  A4D8               	btfss	status,2,c
  2435   00F6B0  EF5C  F07B         	goto	u2401
  2436   00F6B4  EF5E  F07B         	goto	u2400
  2437   00F6B8                     u2401:
  2438   00F6B8  EF6E  F07B         	goto	l194
  2439   00F6BC                     u2400:
  2440   00F6BC  C00B  F003         	movff	DIO_VidSetHalfPortDirection@u8PinIdCopy,??_DIO_VidSetHalfPortDirection
  2441   00F6C0  0E01               	movlw	1
  2442   00F6C2  6E04               	movwf	(??_DIO_VidSetHalfPortDirection+1)^0,c
  2443   00F6C4  2A03               	incf	??_DIO_VidSetHalfPortDirection^0,f,c
  2444   00F6C6  EF67  F07B         	goto	u2414
  2445   00F6CA                     u2415:
  2446   00F6CA  90D8               	bcf	status,0,c
  2447   00F6CC  3604               	rlcf	(??_DIO_VidSetHalfPortDirection+1)^0,f,c
  2448   00F6CE                     u2414:
  2449   00F6CE  2E03               	decfsz	??_DIO_VidSetHalfPortDirection^0,f,c
  2450   00F6D0  EF65  F07B         	goto	u2415
  2451   00F6D4  5004               	movf	(??_DIO_VidSetHalfPortDirection+1)^0,w,c
  2452   00F6D6  1294               	iorwf	148,f,c	;volatile
  2453   00F6D8  EFFB  F07B         	goto	l2186
  2454   00F6DC                     l194:
  2455   00F6DC                     l2158:
  2456   00F6DC  5002               	movf	DIO_VidSetHalfPortDirection@u8PortDir^0,w,c
  2457   00F6DE  A4D8               	btfss	status,2,c
  2458   00F6E0  EF74  F07B         	goto	u2421
  2459   00F6E4  EF76  F07B         	goto	u2420
  2460   00F6E8                     u2421:
  2461   00F6E8  EF87  F07B         	goto	l2164
  2462   00F6EC                     u2420:
  2463   00F6EC  C00B  F003         	movff	DIO_VidSetHalfPortDirection@u8PinIdCopy,??_DIO_VidSetHalfPortDirection
  2464   00F6F0  0E01               	movlw	1
  2465   00F6F2  6E04               	movwf	(??_DIO_VidSetHalfPortDirection+1)^0,c
  2466   00F6F4  2A03               	incf	??_DIO_VidSetHalfPortDirection^0,f,c
  2467   00F6F6  EF7F  F07B         	goto	u2434
  2468   00F6FA                     u2435:
  2469   00F6FA  90D8               	bcf	status,0,c
  2470   00F6FC  3604               	rlcf	(??_DIO_VidSetHalfPortDirection+1)^0,f,c
  2471   00F6FE                     u2434:
  2472   00F6FE  2E03               	decfsz	??_DIO_VidSetHalfPortDirection^0,f,c
  2473   00F700  EF7D  F07B         	goto	u2435
  2474   00F704  5004               	movf	(??_DIO_VidSetHalfPortDirection+1)^0,w,c
  2475   00F706  0AFF               	xorlw	255
  2476   00F708  1695               	andwf	149,f,c	;volatile
  2477   00F70A  EFFB  F07B         	goto	l2186
  2478   00F70E                     l2164:
  2479   00F70E  0402               	decf	DIO_VidSetHalfPortDirection@u8PortDir^0,w,c
  2480   00F710  A4D8               	btfss	status,2,c
  2481   00F712  EF8D  F07B         	goto	u2441
  2482   00F716  EF8F  F07B         	goto	u2440
  2483   00F71A                     u2441:
  2484   00F71A  EF9F  F07B         	goto	l199
  2485   00F71E                     u2440:
  2486   00F71E  C00B  F003         	movff	DIO_VidSetHalfPortDirection@u8PinIdCopy,??_DIO_VidSetHalfPortDirection
  2487   00F722  0E01               	movlw	1
  2488   00F724  6E04               	movwf	(??_DIO_VidSetHalfPortDirection+1)^0,c
  2489   00F726  2A03               	incf	??_DIO_VidSetHalfPortDirection^0,f,c
  2490   00F728  EF98  F07B         	goto	u2454
  2491   00F72C                     u2455:
  2492   00F72C  90D8               	bcf	status,0,c
  2493   00F72E  3604               	rlcf	(??_DIO_VidSetHalfPortDirection+1)^0,f,c
  2494   00F730                     u2454:
  2495   00F730  2E03               	decfsz	??_DIO_VidSetHalfPortDirection^0,f,c
  2496   00F732  EF96  F07B         	goto	u2455
  2497   00F736  5004               	movf	(??_DIO_VidSetHalfPortDirection+1)^0,w,c
  2498   00F738  1295               	iorwf	149,f,c	;volatile
  2499   00F73A  EFFB  F07B         	goto	l2186
  2500   00F73E                     l199:
  2501   00F73E                     l2170:
  2502   00F73E  0E03               	movlw	3
  2503   00F740  600B               	cpfslt	DIO_VidSetHalfPortDirection@u8PinIdCopy^0,c
  2504   00F742  EFA5  F07B         	goto	u2461
  2505   00F746  EFA7  F07B         	goto	u2460
  2506   00F74A                     u2461:
  2507   00F74A  EFFB  F07B         	goto	l2186
  2508   00F74E                     u2460:
  2509   00F74E                     
  2510                           ;E:/MVM_Medical_Vending_Machine/MPLAB_FrameWork/03_MCAL/DIO_prog.c: 202:                
      +                                        if (u8PortDir == 0){TRISE&= ~((uint32)1<<u8PinIdCopy); break;}
  2511   00F74E  5002               	movf	DIO_VidSetHalfPortDirection@u8PortDir^0,w,c
  2512   00F750  A4D8               	btfss	status,2,c
  2513   00F752  EFAD  F07B         	goto	u2471
  2514   00F756  EFAF  F07B         	goto	u2470
  2515   00F75A                     u2471:
  2516   00F75A  EFC0  F07B         	goto	l2178
  2517   00F75E                     u2470:
  2518   00F75E  C00B  F003         	movff	DIO_VidSetHalfPortDirection@u8PinIdCopy,??_DIO_VidSetHalfPortDirection
  2519   00F762  0E01               	movlw	1
  2520   00F764  6E04               	movwf	(??_DIO_VidSetHalfPortDirection+1)^0,c
  2521   00F766  2A03               	incf	??_DIO_VidSetHalfPortDirection^0,f,c
  2522   00F768  EFB8  F07B         	goto	u2484
  2523   00F76C                     u2485:
  2524   00F76C  90D8               	bcf	status,0,c
  2525   00F76E  3604               	rlcf	(??_DIO_VidSetHalfPortDirection+1)^0,f,c
  2526   00F770                     u2484:
  2527   00F770  2E03               	decfsz	??_DIO_VidSetHalfPortDirection^0,f,c
  2528   00F772  EFB6  F07B         	goto	u2485
  2529   00F776  5004               	movf	(??_DIO_VidSetHalfPortDirection+1)^0,w,c
  2530   00F778  0AFF               	xorlw	255
  2531   00F77A  1696               	andwf	150,f,c	;volatile
  2532   00F77C  EFFB  F07B         	goto	l2186
  2533   00F780                     l2178:
  2534   00F780  0402               	decf	DIO_VidSetHalfPortDirection@u8PortDir^0,w,c
  2535   00F782  A4D8               	btfss	status,2,c
  2536   00F784  EFC6  F07B         	goto	u2491
  2537   00F788  EFC8  F07B         	goto	u2490
  2538   00F78C                     u2491:
  2539   00F78C  EFD8  F07B         	goto	l203
  2540   00F790                     u2490:
  2541   00F790  C00B  F003         	movff	DIO_VidSetHalfPortDirection@u8PinIdCopy,??_DIO_VidSetHalfPortDirection
  2542   00F794  0E01               	movlw	1
  2543   00F796  6E04               	movwf	(??_DIO_VidSetHalfPortDirection+1)^0,c
  2544   00F798  2A03               	incf	??_DIO_VidSetHalfPortDirection^0,f,c
  2545   00F79A  EFD1  F07B         	goto	u2504
  2546   00F79E                     u2505:
  2547   00F79E  90D8               	bcf	status,0,c
  2548   00F7A0  3604               	rlcf	(??_DIO_VidSetHalfPortDirection+1)^0,f,c
  2549   00F7A2                     u2504:
  2550   00F7A2  2E03               	decfsz	??_DIO_VidSetHalfPortDirection^0,f,c
  2551   00F7A4  EFCF  F07B         	goto	u2505
  2552   00F7A8  5004               	movf	(??_DIO_VidSetHalfPortDirection+1)^0,w,c
  2553   00F7AA  1296               	iorwf	150,f,c	;volatile
  2554   00F7AC  EFFB  F07B         	goto	l2186
  2555   00F7B0                     l203:
  2556                           
  2557                           ;E:/MVM_Medical_Vending_Machine/MPLAB_FrameWork/03_MCAL/DIO_prog.c: 204:    }
  2558   00F7B0  EFFB  F07B         	goto	l2186
  2559   00F7B4                     l2184:
  2560   00F7B4  500A               	movf	DIO_VidSetHalfPortDirection@u8PortId^0,w,c
  2561   00F7B6  6E03               	movwf	??_DIO_VidSetHalfPortDirection^0,c
  2562   00F7B8  6A04               	clrf	(??_DIO_VidSetHalfPortDirection+1)^0,c
  2563                           
  2564                           ; Switch on 2 bytes has been partitioned into a top level switch of size 1, and 1 sub-sw
      +                          itches
  2565                           ; Switch size 1, requested type "simple"
  2566                           ; Number of cases is 1, Range of values is 0 to 0
  2567                           ; switch strategies available:
  2568                           ; Name         Instructions Cycles
  2569                           ; simple_byte            4     3 (average)
  2570                           ;	Chosen strategy is simple_byte
  2571   00F7BA  5004               	movf	(??_DIO_VidSetHalfPortDirection+1)^0,w,c
  2572   00F7BC  0A00               	xorlw	0	; case 0
  2573   00F7BE  B4D8               	btfsc	status,2,c
  2574   00F7C0  EFE4  F07B         	goto	l2664
  2575   00F7C4  EFFB  F07B         	goto	l2186
  2576   00F7C8                     l2664:
  2577                           
  2578                           ; Switch size 1, requested type "simple"
  2579                           ; Number of cases is 5, Range of values is 0 to 4
  2580                           ; switch strategies available:
  2581                           ; Name         Instructions Cycles
  2582                           ; simple_byte           16     9 (average)
  2583                           ;	Chosen strategy is simple_byte
  2584   00F7C8  5003               	movf	??_DIO_VidSetHalfPortDirection^0,w,c
  2585   00F7CA  0A00               	xorlw	0	; case 0
  2586   00F7CC  B4D8               	btfsc	status,2,c
  2587   00F7CE  EFDB  F07A         	goto	l2122
  2588   00F7D2  0A01               	xorlw	1	; case 1
  2589   00F7D4  B4D8               	btfsc	status,2,c
  2590   00F7D6  EF0C  F07B         	goto	l2134
  2591   00F7DA  0A03               	xorlw	3	; case 2
  2592   00F7DC  B4D8               	btfsc	status,2,c
  2593   00F7DE  EF3D  F07B         	goto	l2146
  2594   00F7E2  0A01               	xorlw	1	; case 3
  2595   00F7E4  B4D8               	btfsc	status,2,c
  2596   00F7E6  EF6E  F07B         	goto	l2158
  2597   00F7EA  0A07               	xorlw	7	; case 4
  2598   00F7EC  B4D8               	btfsc	status,2,c
  2599   00F7EE  EF9F  F07B         	goto	l2170
  2600   00F7F2  EFFB  F07B         	goto	l2186
  2601   00F7F6                     l2186:
  2602                           
  2603                           ;E:/MVM_Medical_Vending_Machine/MPLAB_FrameWork/03_MCAL/DIO_prog.c: 205:         }
  2604   00F7F6  2A0B               	incf	DIO_VidSetHalfPortDirection@u8PinIdCopy^0,f,c
  2605   00F7F8                     l2188:
  2606   00F7F8  500B               	movf	DIO_VidSetHalfPortDirection@u8PinIdCopy^0,w,c
  2607   00F7FA  6E03               	movwf	??_DIO_VidSetHalfPortDirection^0,c
  2608   00F7FC  6A04               	clrf	(??_DIO_VidSetHalfPortDirection+1)^0,c
  2609   00F7FE  5001               	movf	DIO_VidSetHalfPortDirection@u8PortHalf^0,w,c
  2610   00F800  6E05               	movwf	(??_DIO_VidSetHalfPortDirection+2)^0,c
  2611   00F802  6A06               	clrf	(??_DIO_VidSetHalfPortDirection+3)^0,c
  2612   00F804  90D8               	bcf	status,0,c
  2613   00F806  3605               	rlcf	(??_DIO_VidSetHalfPortDirection+2)^0,f,c
  2614   00F808  3606               	rlcf	(??_DIO_VidSetHalfPortDirection+3)^0,f,c
  2615   00F80A  90D8               	bcf	status,0,c
  2616   00F80C  3605               	rlcf	(??_DIO_VidSetHalfPortDirection+2)^0,f,c
  2617   00F80E  3606               	rlcf	(??_DIO_VidSetHalfPortDirection+3)^0,f,c
  2618   00F810  0EFF               	movlw	255
  2619   00F812  2405               	addwf	(??_DIO_VidSetHalfPortDirection+2)^0,w,c
  2620   00F814  6E07               	movwf	(??_DIO_VidSetHalfPortDirection+4)^0,c
  2621   00F816  0EFF               	movlw	255
  2622   00F818  2006               	addwfc	(??_DIO_VidSetHalfPortDirection+3)^0,w,c
  2623   00F81A  6E08               	movwf	(??_DIO_VidSetHalfPortDirection+5)^0,c
  2624   00F81C  5003               	movf	??_DIO_VidSetHalfPortDirection^0,w,c
  2625   00F81E  5C07               	subwf	(??_DIO_VidSetHalfPortDirection+4)^0,w,c
  2626   00F820  5008               	movf	(??_DIO_VidSetHalfPortDirection+5)^0,w,c
  2627   00F822  0A80               	xorlw	128
  2628   00F824  6E09               	movwf	(??_DIO_VidSetHalfPortDirection+6)^0,c
  2629   00F826  5004               	movf	(??_DIO_VidSetHalfPortDirection+1)^0,w,c
  2630   00F828  0A80               	xorlw	128
  2631   00F82A  5809               	subwfb	(??_DIO_VidSetHalfPortDirection+6)^0,w,c
  2632   00F82C  B0D8               	btfsc	status,0,c
  2633   00F82E  EF1B  F07C         	goto	u2511
  2634   00F832  EF1D  F07C         	goto	u2510
  2635   00F836                     u2511:
  2636   00F836  EFDA  F07B         	goto	l2184
  2637   00F83A                     u2510:
  2638   00F83A  0012               	return		;funcret
  2639   00F83C                     __end_of_DIO_VidSetHalfPortDirection:
  2640                           	callstack 0
  2641                           
  2642 ;; *************** function _DIO_VidDirPortNibble *****************
  2643 ;; Defined at:
  2644 ;;		line 229 in file "E:/MVM_Medical_Vending_Machine/MPLAB_FrameWork/03_MCAL/DIO_prog.c"
  2645 ;; Parameters:    Size  Location     Type
  2646 ;;  u8PortId        1    wreg     unsigned char 
  2647 ;;  u8StPin         1    0[COMRAM] unsigned char 
  2648 ;;  u8PortDir       1    1[COMRAM] unsigned char 
  2649 ;; Auto vars:     Size  Location     Type
  2650 ;;  u8PortId        1    7[COMRAM] unsigned char 
  2651 ;;  u8PinIdCopy     1    8[COMRAM] unsigned char 
  2652 ;; Return value:  Size  Location     Type
  2653 ;;                  1    wreg      void 
  2654 ;; Registers used:
  2655 ;;		wreg, status,2, status,0
  2656 ;; Tracked objects:
  2657 ;;		On entry : 0/0
  2658 ;;		On exit  : 0/0
  2659 ;;		Unchanged: 0/0
  2660 ;; Data sizes:     COMRAM   BANK0   BANK1   BANK2   BANK3   BANK4   BANK5   BANK6   BANK7   BANK8   BANK9  BANK10  BANK1
      +1  BANK12  BANK13  BANK14  BANK15
  2661 ;;      Params:         2       0       0       0       0       0       0       0       0       0       0       0       
      +0       0       0       0       0
  2662 ;;      Locals:         2       0       0       0       0       0       0       0       0       0       0       0       
      +0       0       0       0       0
  2663 ;;      Temps:          5       0       0       0       0       0       0       0       0       0       0       0       
      +0       0       0       0       0
  2664 ;;      Totals:         9       0       0       0       0       0       0       0       0       0       0       0       
      +0       0       0       0       0
  2665 ;;Total ram usage:        9 bytes
  2666 ;; Hardware stack levels used: 1
  2667 ;; This function calls:
  2668 ;;		Nothing
  2669 ;; This function is called by:
  2670 ;;		_main
  2671 ;; This function uses a non-reentrant model
  2672 ;;
  2673                           
  2674                           	psect	text8
  2675   00F316                     __ptext8:
  2676                           	callstack 0
  2677   00F316                     _DIO_VidDirPortNibble:
  2678                           	callstack 30
  2679                           
  2680                           ;incstack = 0
  2681                           ;DIO_VidDirPortNibble@u8PortId stored from wreg
  2682   00F316  6E08               	movwf	DIO_VidDirPortNibble@u8PortId^0,c
  2683   00F318                     
  2684                           ;E:/MVM_Medical_Vending_Machine/MPLAB_FrameWork/03_MCAL/DIO_prog.c: 230:     if(u8StPin 
      +                          <= PIN4){
  2685   00F318  0E05               	movlw	5
  2686   00F31A  6001               	cpfslt	DIO_VidDirPortNibble@u8StPin^0,c
  2687   00F31C  EF92  F079         	goto	u2071
  2688   00F320  EF94  F079         	goto	u2070
  2689   00F324                     u2071:
  2690   00F324  EFD2  F07A         	goto	l278
  2691   00F328                     u2070:
  2692   00F328                     
  2693                           ;E:/MVM_Medical_Vending_Machine/MPLAB_FrameWork/03_MCAL/DIO_prog.c: 231:     for (uint8 
      +                          u8PinIdCopy= u8StPin ; u8PinIdCopy<= u8StPin+3 ;u8PinIdCopy++){
  2694   00F328  C001  F009         	movff	DIO_VidDirPortNibble@u8StPin,DIO_VidDirPortNibble@u8PinIdCopy
  2695   00F32C  EFB9  F07A         	goto	l2114
  2696   00F330                     l2048:
  2697   00F330  5002               	movf	DIO_VidDirPortNibble@u8PortDir^0,w,c
  2698   00F332  A4D8               	btfss	status,2,c
  2699   00F334  EF9E  F079         	goto	u2081
  2700   00F338  EFA0  F079         	goto	u2080
  2701   00F33C                     u2081:
  2702   00F33C  EFB1  F079         	goto	l2054
  2703   00F340                     u2080:
  2704   00F340  C009  F003         	movff	DIO_VidDirPortNibble@u8PinIdCopy,??_DIO_VidDirPortNibble
  2705   00F344  0E01               	movlw	1
  2706   00F346  6E04               	movwf	(??_DIO_VidDirPortNibble+1)^0,c
  2707   00F348  2A03               	incf	??_DIO_VidDirPortNibble^0,f,c
  2708   00F34A  EFA9  F079         	goto	u2094
  2709   00F34E                     u2095:
  2710   00F34E  90D8               	bcf	status,0,c
  2711   00F350  3604               	rlcf	(??_DIO_VidDirPortNibble+1)^0,f,c
  2712   00F352                     u2094:
  2713   00F352  2E03               	decfsz	??_DIO_VidDirPortNibble^0,f,c
  2714   00F354  EFA7  F079         	goto	u2095
  2715   00F358  5004               	movf	(??_DIO_VidDirPortNibble+1)^0,w,c
  2716   00F35A  0AFF               	xorlw	255
  2717   00F35C  1692               	andwf	146,f,c	;volatile
  2718   00F35E  EFB8  F07A         	goto	l2112
  2719   00F362                     l2054:
  2720   00F362  0402               	decf	DIO_VidDirPortNibble@u8PortDir^0,w,c
  2721   00F364  A4D8               	btfss	status,2,c
  2722   00F366  EFB7  F079         	goto	u2101
  2723   00F36A  EFB9  F079         	goto	u2100
  2724   00F36E                     u2101:
  2725   00F36E  EFC9  F079         	goto	l253
  2726   00F372                     u2100:
  2727   00F372  C009  F003         	movff	DIO_VidDirPortNibble@u8PinIdCopy,??_DIO_VidDirPortNibble
  2728   00F376  0E01               	movlw	1
  2729   00F378  6E04               	movwf	(??_DIO_VidDirPortNibble+1)^0,c
  2730   00F37A  2A03               	incf	??_DIO_VidDirPortNibble^0,f,c
  2731   00F37C  EFC2  F079         	goto	u2114
  2732   00F380                     u2115:
  2733   00F380  90D8               	bcf	status,0,c
  2734   00F382  3604               	rlcf	(??_DIO_VidDirPortNibble+1)^0,f,c
  2735   00F384                     u2114:
  2736   00F384  2E03               	decfsz	??_DIO_VidDirPortNibble^0,f,c
  2737   00F386  EFC0  F079         	goto	u2115
  2738   00F38A  5004               	movf	(??_DIO_VidDirPortNibble+1)^0,w,c
  2739   00F38C  1292               	iorwf	146,f,c	;volatile
  2740   00F38E  EFB8  F07A         	goto	l2112
  2741   00F392                     l253:
  2742   00F392                     l2060:
  2743   00F392  5002               	movf	DIO_VidDirPortNibble@u8PortDir^0,w,c
  2744   00F394  A4D8               	btfss	status,2,c
  2745   00F396  EFCF  F079         	goto	u2121
  2746   00F39A  EFD1  F079         	goto	u2120
  2747   00F39E                     u2121:
  2748   00F39E  EFE2  F079         	goto	l2066
  2749   00F3A2                     u2120:
  2750   00F3A2  C009  F003         	movff	DIO_VidDirPortNibble@u8PinIdCopy,??_DIO_VidDirPortNibble
  2751   00F3A6  0E01               	movlw	1
  2752   00F3A8  6E04               	movwf	(??_DIO_VidDirPortNibble+1)^0,c
  2753   00F3AA  2A03               	incf	??_DIO_VidDirPortNibble^0,f,c
  2754   00F3AC  EFDA  F079         	goto	u2134
  2755   00F3B0                     u2135:
  2756   00F3B0  90D8               	bcf	status,0,c
  2757   00F3B2  3604               	rlcf	(??_DIO_VidDirPortNibble+1)^0,f,c
  2758   00F3B4                     u2134:
  2759   00F3B4  2E03               	decfsz	??_DIO_VidDirPortNibble^0,f,c
  2760   00F3B6  EFD8  F079         	goto	u2135
  2761   00F3BA  5004               	movf	(??_DIO_VidDirPortNibble+1)^0,w,c
  2762   00F3BC  0AFF               	xorlw	255
  2763   00F3BE  1693               	andwf	147,f,c	;volatile
  2764   00F3C0  EFB8  F07A         	goto	l2112
  2765   00F3C4                     l2066:
  2766   00F3C4  0402               	decf	DIO_VidDirPortNibble@u8PortDir^0,w,c
  2767   00F3C6  A4D8               	btfss	status,2,c
  2768   00F3C8  EFE8  F079         	goto	u2141
  2769   00F3CC  EFEA  F079         	goto	u2140
  2770   00F3D0                     u2141:
  2771   00F3D0  EFFA  F079         	goto	l258
  2772   00F3D4                     u2140:
  2773   00F3D4  C009  F003         	movff	DIO_VidDirPortNibble@u8PinIdCopy,??_DIO_VidDirPortNibble
  2774   00F3D8  0E01               	movlw	1
  2775   00F3DA  6E04               	movwf	(??_DIO_VidDirPortNibble+1)^0,c
  2776   00F3DC  2A03               	incf	??_DIO_VidDirPortNibble^0,f,c
  2777   00F3DE  EFF3  F079         	goto	u2154
  2778   00F3E2                     u2155:
  2779   00F3E2  90D8               	bcf	status,0,c
  2780   00F3E4  3604               	rlcf	(??_DIO_VidDirPortNibble+1)^0,f,c
  2781   00F3E6                     u2154:
  2782   00F3E6  2E03               	decfsz	??_DIO_VidDirPortNibble^0,f,c
  2783   00F3E8  EFF1  F079         	goto	u2155
  2784   00F3EC  5004               	movf	(??_DIO_VidDirPortNibble+1)^0,w,c
  2785   00F3EE  1293               	iorwf	147,f,c	;volatile
  2786   00F3F0  EFB8  F07A         	goto	l2112
  2787   00F3F4                     l258:
  2788   00F3F4                     l2072:
  2789   00F3F4  5002               	movf	DIO_VidDirPortNibble@u8PortDir^0,w,c
  2790   00F3F6  A4D8               	btfss	status,2,c
  2791   00F3F8  EF00  F07A         	goto	u2161
  2792   00F3FC  EF02  F07A         	goto	u2160
  2793   00F400                     u2161:
  2794   00F400  EF13  F07A         	goto	l2078
  2795   00F404                     u2160:
  2796   00F404  C009  F003         	movff	DIO_VidDirPortNibble@u8PinIdCopy,??_DIO_VidDirPortNibble
  2797   00F408  0E01               	movlw	1
  2798   00F40A  6E04               	movwf	(??_DIO_VidDirPortNibble+1)^0,c
  2799   00F40C  2A03               	incf	??_DIO_VidDirPortNibble^0,f,c
  2800   00F40E  EF0B  F07A         	goto	u2174
  2801   00F412                     u2175:
  2802   00F412  90D8               	bcf	status,0,c
  2803   00F414  3604               	rlcf	(??_DIO_VidDirPortNibble+1)^0,f,c
  2804   00F416                     u2174:
  2805   00F416  2E03               	decfsz	??_DIO_VidDirPortNibble^0,f,c
  2806   00F418  EF09  F07A         	goto	u2175
  2807   00F41C  5004               	movf	(??_DIO_VidDirPortNibble+1)^0,w,c
  2808   00F41E  0AFF               	xorlw	255
  2809   00F420  1694               	andwf	148,f,c	;volatile
  2810   00F422  EFB8  F07A         	goto	l2112
  2811   00F426                     l2078:
  2812   00F426  0402               	decf	DIO_VidDirPortNibble@u8PortDir^0,w,c
  2813   00F428  A4D8               	btfss	status,2,c
  2814   00F42A  EF19  F07A         	goto	u2181
  2815   00F42E  EF1B  F07A         	goto	u2180
  2816   00F432                     u2181:
  2817   00F432  EF2B  F07A         	goto	l263
  2818   00F436                     u2180:
  2819   00F436  C009  F003         	movff	DIO_VidDirPortNibble@u8PinIdCopy,??_DIO_VidDirPortNibble
  2820   00F43A  0E01               	movlw	1
  2821   00F43C  6E04               	movwf	(??_DIO_VidDirPortNibble+1)^0,c
  2822   00F43E  2A03               	incf	??_DIO_VidDirPortNibble^0,f,c
  2823   00F440  EF24  F07A         	goto	u2194
  2824   00F444                     u2195:
  2825   00F444  90D8               	bcf	status,0,c
  2826   00F446  3604               	rlcf	(??_DIO_VidDirPortNibble+1)^0,f,c
  2827   00F448                     u2194:
  2828   00F448  2E03               	decfsz	??_DIO_VidDirPortNibble^0,f,c
  2829   00F44A  EF22  F07A         	goto	u2195
  2830   00F44E  5004               	movf	(??_DIO_VidDirPortNibble+1)^0,w,c
  2831   00F450  1294               	iorwf	148,f,c	;volatile
  2832   00F452  EFB8  F07A         	goto	l2112
  2833   00F456                     l263:
  2834   00F456                     l2084:
  2835   00F456  5002               	movf	DIO_VidDirPortNibble@u8PortDir^0,w,c
  2836   00F458  A4D8               	btfss	status,2,c
  2837   00F45A  EF31  F07A         	goto	u2201
  2838   00F45E  EF33  F07A         	goto	u2200
  2839   00F462                     u2201:
  2840   00F462  EF44  F07A         	goto	l2090
  2841   00F466                     u2200:
  2842   00F466  C009  F003         	movff	DIO_VidDirPortNibble@u8PinIdCopy,??_DIO_VidDirPortNibble
  2843   00F46A  0E01               	movlw	1
  2844   00F46C  6E04               	movwf	(??_DIO_VidDirPortNibble+1)^0,c
  2845   00F46E  2A03               	incf	??_DIO_VidDirPortNibble^0,f,c
  2846   00F470  EF3C  F07A         	goto	u2214
  2847   00F474                     u2215:
  2848   00F474  90D8               	bcf	status,0,c
  2849   00F476  3604               	rlcf	(??_DIO_VidDirPortNibble+1)^0,f,c
  2850   00F478                     u2214:
  2851   00F478  2E03               	decfsz	??_DIO_VidDirPortNibble^0,f,c
  2852   00F47A  EF3A  F07A         	goto	u2215
  2853   00F47E  5004               	movf	(??_DIO_VidDirPortNibble+1)^0,w,c
  2854   00F480  0AFF               	xorlw	255
  2855   00F482  1695               	andwf	149,f,c	;volatile
  2856   00F484  EFB8  F07A         	goto	l2112
  2857   00F488                     l2090:
  2858   00F488  0402               	decf	DIO_VidDirPortNibble@u8PortDir^0,w,c
  2859   00F48A  A4D8               	btfss	status,2,c
  2860   00F48C  EF4A  F07A         	goto	u2221
  2861   00F490  EF4C  F07A         	goto	u2220
  2862   00F494                     u2221:
  2863   00F494  EF5C  F07A         	goto	l268
  2864   00F498                     u2220:
  2865   00F498  C009  F003         	movff	DIO_VidDirPortNibble@u8PinIdCopy,??_DIO_VidDirPortNibble
  2866   00F49C  0E01               	movlw	1
  2867   00F49E  6E04               	movwf	(??_DIO_VidDirPortNibble+1)^0,c
  2868   00F4A0  2A03               	incf	??_DIO_VidDirPortNibble^0,f,c
  2869   00F4A2  EF55  F07A         	goto	u2234
  2870   00F4A6                     u2235:
  2871   00F4A6  90D8               	bcf	status,0,c
  2872   00F4A8  3604               	rlcf	(??_DIO_VidDirPortNibble+1)^0,f,c
  2873   00F4AA                     u2234:
  2874   00F4AA  2E03               	decfsz	??_DIO_VidDirPortNibble^0,f,c
  2875   00F4AC  EF53  F07A         	goto	u2235
  2876   00F4B0  5004               	movf	(??_DIO_VidDirPortNibble+1)^0,w,c
  2877   00F4B2  1295               	iorwf	149,f,c	;volatile
  2878   00F4B4  EFB8  F07A         	goto	l2112
  2879   00F4B8                     l268:
  2880   00F4B8                     l2096:
  2881   00F4B8  0E03               	movlw	3
  2882   00F4BA  6009               	cpfslt	DIO_VidDirPortNibble@u8PinIdCopy^0,c
  2883   00F4BC  EF62  F07A         	goto	u2241
  2884   00F4C0  EF64  F07A         	goto	u2240
  2885   00F4C4                     u2241:
  2886   00F4C4  EFB8  F07A         	goto	l2112
  2887   00F4C8                     u2240:
  2888   00F4C8                     
  2889                           ;E:/MVM_Medical_Vending_Machine/MPLAB_FrameWork/03_MCAL/DIO_prog.c: 243:                
      +                                        if (u8PortDir == 0){TRISE&= ~((uint32)1<<u8PinIdCopy); break;}
  2890   00F4C8  5002               	movf	DIO_VidDirPortNibble@u8PortDir^0,w,c
  2891   00F4CA  A4D8               	btfss	status,2,c
  2892   00F4CC  EF6A  F07A         	goto	u2251
  2893   00F4D0  EF6C  F07A         	goto	u2250
  2894   00F4D4                     u2251:
  2895   00F4D4  EF7D  F07A         	goto	l2104
  2896   00F4D8                     u2250:
  2897   00F4D8  C009  F003         	movff	DIO_VidDirPortNibble@u8PinIdCopy,??_DIO_VidDirPortNibble
  2898   00F4DC  0E01               	movlw	1
  2899   00F4DE  6E04               	movwf	(??_DIO_VidDirPortNibble+1)^0,c
  2900   00F4E0  2A03               	incf	??_DIO_VidDirPortNibble^0,f,c
  2901   00F4E2  EF75  F07A         	goto	u2264
  2902   00F4E6                     u2265:
  2903   00F4E6  90D8               	bcf	status,0,c
  2904   00F4E8  3604               	rlcf	(??_DIO_VidDirPortNibble+1)^0,f,c
  2905   00F4EA                     u2264:
  2906   00F4EA  2E03               	decfsz	??_DIO_VidDirPortNibble^0,f,c
  2907   00F4EC  EF73  F07A         	goto	u2265
  2908   00F4F0  5004               	movf	(??_DIO_VidDirPortNibble+1)^0,w,c
  2909   00F4F2  0AFF               	xorlw	255
  2910   00F4F4  1696               	andwf	150,f,c	;volatile
  2911   00F4F6  EFB8  F07A         	goto	l2112
  2912   00F4FA                     l2104:
  2913   00F4FA  0402               	decf	DIO_VidDirPortNibble@u8PortDir^0,w,c
  2914   00F4FC  A4D8               	btfss	status,2,c
  2915   00F4FE  EF83  F07A         	goto	u2271
  2916   00F502  EF85  F07A         	goto	u2270
  2917   00F506                     u2271:
  2918   00F506  EF95  F07A         	goto	l272
  2919   00F50A                     u2270:
  2920   00F50A  C009  F003         	movff	DIO_VidDirPortNibble@u8PinIdCopy,??_DIO_VidDirPortNibble
  2921   00F50E  0E01               	movlw	1
  2922   00F510  6E04               	movwf	(??_DIO_VidDirPortNibble+1)^0,c
  2923   00F512  2A03               	incf	??_DIO_VidDirPortNibble^0,f,c
  2924   00F514  EF8E  F07A         	goto	u2284
  2925   00F518                     u2285:
  2926   00F518  90D8               	bcf	status,0,c
  2927   00F51A  3604               	rlcf	(??_DIO_VidDirPortNibble+1)^0,f,c
  2928   00F51C                     u2284:
  2929   00F51C  2E03               	decfsz	??_DIO_VidDirPortNibble^0,f,c
  2930   00F51E  EF8C  F07A         	goto	u2285
  2931   00F522  5004               	movf	(??_DIO_VidDirPortNibble+1)^0,w,c
  2932   00F524  1296               	iorwf	150,f,c	;volatile
  2933   00F526  EFB8  F07A         	goto	l2112
  2934   00F52A                     l272:
  2935                           
  2936                           ;E:/MVM_Medical_Vending_Machine/MPLAB_FrameWork/03_MCAL/DIO_prog.c: 245:    }
  2937   00F52A  EFB8  F07A         	goto	l2112
  2938   00F52E                     l2110:
  2939   00F52E  5008               	movf	DIO_VidDirPortNibble@u8PortId^0,w,c
  2940   00F530  6E03               	movwf	??_DIO_VidDirPortNibble^0,c
  2941   00F532  6A04               	clrf	(??_DIO_VidDirPortNibble+1)^0,c
  2942                           
  2943                           ; Switch on 2 bytes has been partitioned into a top level switch of size 1, and 1 sub-sw
      +                          itches
  2944                           ; Switch size 1, requested type "simple"
  2945                           ; Number of cases is 1, Range of values is 0 to 0
  2946                           ; switch strategies available:
  2947                           ; Name         Instructions Cycles
  2948                           ; simple_byte            4     3 (average)
  2949                           ;	Chosen strategy is simple_byte
  2950   00F534  5004               	movf	(??_DIO_VidDirPortNibble+1)^0,w,c
  2951   00F536  0A00               	xorlw	0	; case 0
  2952   00F538  B4D8               	btfsc	status,2,c
  2953   00F53A  EFA1  F07A         	goto	l2666
  2954   00F53E  EFB8  F07A         	goto	l2112
  2955   00F542                     l2666:
  2956                           
  2957                           ; Switch size 1, requested type "simple"
  2958                           ; Number of cases is 5, Range of values is 0 to 4
  2959                           ; switch strategies available:
  2960                           ; Name         Instructions Cycles
  2961                           ; simple_byte           16     9 (average)
  2962                           ;	Chosen strategy is simple_byte
  2963   00F542  5003               	movf	??_DIO_VidDirPortNibble^0,w,c
  2964   00F544  0A00               	xorlw	0	; case 0
  2965   00F546  B4D8               	btfsc	status,2,c
  2966   00F548  EF98  F079         	goto	l2048
  2967   00F54C  0A01               	xorlw	1	; case 1
  2968   00F54E  B4D8               	btfsc	status,2,c
  2969   00F550  EFC9  F079         	goto	l2060
  2970   00F554  0A03               	xorlw	3	; case 2
  2971   00F556  B4D8               	btfsc	status,2,c
  2972   00F558  EFFA  F079         	goto	l2072
  2973   00F55C  0A01               	xorlw	1	; case 3
  2974   00F55E  B4D8               	btfsc	status,2,c
  2975   00F560  EF2B  F07A         	goto	l2084
  2976   00F564  0A07               	xorlw	7	; case 4
  2977   00F566  B4D8               	btfsc	status,2,c
  2978   00F568  EF5C  F07A         	goto	l2096
  2979   00F56C  EFB8  F07A         	goto	l2112
  2980   00F570                     l2112:
  2981                           
  2982                           ;E:/MVM_Medical_Vending_Machine/MPLAB_FrameWork/03_MCAL/DIO_prog.c: 246:         }
  2983   00F570  2A09               	incf	DIO_VidDirPortNibble@u8PinIdCopy^0,f,c
  2984   00F572                     l2114:
  2985   00F572  5009               	movf	DIO_VidDirPortNibble@u8PinIdCopy^0,w,c
  2986   00F574  6E03               	movwf	??_DIO_VidDirPortNibble^0,c
  2987   00F576  6A04               	clrf	(??_DIO_VidDirPortNibble+1)^0,c
  2988   00F578  5001               	movf	DIO_VidDirPortNibble@u8StPin^0,w,c
  2989   00F57A  6E05               	movwf	(??_DIO_VidDirPortNibble+2)^0,c
  2990   00F57C  6A06               	clrf	(??_DIO_VidDirPortNibble+3)^0,c
  2991   00F57E  0E03               	movlw	3
  2992   00F580  2605               	addwf	(??_DIO_VidDirPortNibble+2)^0,f,c
  2993   00F582  0E00               	movlw	0
  2994   00F584  2206               	addwfc	(??_DIO_VidDirPortNibble+3)^0,f,c
  2995   00F586  5003               	movf	??_DIO_VidDirPortNibble^0,w,c
  2996   00F588  5C05               	subwf	(??_DIO_VidDirPortNibble+2)^0,w,c
  2997   00F58A  5006               	movf	(??_DIO_VidDirPortNibble+3)^0,w,c
  2998   00F58C  0A80               	xorlw	128
  2999   00F58E  6E07               	movwf	(??_DIO_VidDirPortNibble+4)^0,c
  3000   00F590  5004               	movf	(??_DIO_VidDirPortNibble+1)^0,w,c
  3001   00F592  0A80               	xorlw	128
  3002   00F594  5807               	subwfb	(??_DIO_VidDirPortNibble+4)^0,w,c
  3003   00F596  B0D8               	btfsc	status,0,c
  3004   00F598  EFD0  F07A         	goto	u2291
  3005   00F59C  EFD2  F07A         	goto	u2290
  3006   00F5A0                     u2291:
  3007   00F5A0  EF97  F07A         	goto	l2110
  3008   00F5A4                     u2290:
  3009   00F5A4                     l278:
  3010   00F5A4  0012               	return		;funcret
  3011   00F5A6                     __end_of_DIO_VidDirPortNibble:
  3012                           	callstack 0
  3013                           
  3014 ;; *************** function _ADC_u16GetChannelReading *****************
  3015 ;; Defined at:
  3016 ;;		line 43 in file "E:/MVM_Medical_Vending_Machine/MPLAB_FrameWork/03_MCAL/ADC_Prog.c"
  3017 ;; Parameters:    Size  Location     Type
  3018 ;;  Channel         1    wreg     unsigned char 
  3019 ;; Auto vars:     Size  Location     Type
  3020 ;;  Channel         1    4[COMRAM] unsigned char 
  3021 ;;  u16ReadingRe    2    5[COMRAM] unsigned short 
  3022 ;; Return value:  Size  Location     Type
  3023 ;;                  2    0[COMRAM] unsigned short 
  3024 ;; Registers used:
  3025 ;;		wreg, status,2, status,0, prodl, prodh
  3026 ;; Tracked objects:
  3027 ;;		On entry : 0/0
  3028 ;;		On exit  : 0/0
  3029 ;;		Unchanged: 0/0
  3030 ;; Data sizes:     COMRAM   BANK0   BANK1   BANK2   BANK3   BANK4   BANK5   BANK6   BANK7   BANK8   BANK9  BANK10  BANK1
      +1  BANK12  BANK13  BANK14  BANK15
  3031 ;;      Params:         2       0       0       0       0       0       0       0       0       0       0       0       
      +0       0       0       0       0
  3032 ;;      Locals:         3       0       0       0       0       0       0       0       0       0       0       0       
      +0       0       0       0       0
  3033 ;;      Temps:          2       0       0       0       0       0       0       0       0       0       0       0       
      +0       0       0       0       0
  3034 ;;      Totals:         7       0       0       0       0       0       0       0       0       0       0       0       
      +0       0       0       0       0
  3035 ;;Total ram usage:        7 bytes
  3036 ;; Hardware stack levels used: 1
  3037 ;; This function calls:
  3038 ;;		Nothing
  3039 ;; This function is called by:
  3040 ;;		_main
  3041 ;; This function uses a non-reentrant model
  3042 ;;
  3043                           
  3044                           	psect	text9
  3045   00ECBE                     __ptext9:
  3046                           	callstack 0
  3047   00ECBE                     _ADC_u16GetChannelReading:
  3048                           	callstack 30
  3049                           
  3050                           ;incstack = 0
  3051                           ;ADC_u16GetChannelReading@Channel stored from wreg
  3052   00ECBE  6E05               	movwf	ADC_u16GetChannelReading@Channel^0,c
  3053   00ECC0                     
  3054                           ;E:/MVM_Medical_Vending_Machine/MPLAB_FrameWork/03_MCAL/ADC_Prog.c: 44:     uint16 u16Re
      +                          adingReturn;;E:/MVM_Medical_Vending_Machine/MPLAB_FrameWork/03_MCAL/ADC_Prog.c: 46:  ADC
      +                          ON0 &= 0b11000011;
  3055   00ECC0  0EC3               	movlw	195
  3056   00ECC2  16C2               	andwf	194,f,c	;volatile
  3057   00ECC4                     
  3058                           ;E:/MVM_Medical_Vending_Machine/MPLAB_FrameWork/03_MCAL/ADC_Prog.c: 49:  ADCON0 &= (Chan
      +                          nel*4)+3 ;
  3059   00ECC4  5005               	movf	ADC_u16GetChannelReading@Channel^0,w,c	;volatile
  3060   00ECC6  0D04               	mullw	4
  3061   00ECC8  50F3               	movf	243,w,c
  3062   00ECCA  0F03               	addlw	3
  3063   00ECCC  16C2               	andwf	194,f,c	;volatile
  3064   00ECCE                     
  3065                           ;E:/MVM_Medical_Vending_Machine/MPLAB_FrameWork/03_MCAL/ADC_Prog.c: 52:      _delay((uns
      +                          igned long)((50)*(4000000/4000.0)));
  3066   00ECCE  0E41               	movlw	65
  3067   00ECD0  6E03               	movwf	??_ADC_u16GetChannelReading^0,c
  3068   00ECD2  0EEE               	movlw	238
  3069   00ECD4                     u3277:
  3070   00ECD4  2EE8               	decfsz	wreg,f,c
  3071   00ECD6  D7FE               	bra	u3277
  3072   00ECD8  2E03               	decfsz	??_ADC_u16GetChannelReading^0,f,c
  3073   00ECDA  D7FC               	bra	u3277
  3074   00ECDC  D000               	nop2	
  3075   00ECDE                     
  3076                           ;E:/MVM_Medical_Vending_Machine/MPLAB_FrameWork/03_MCAL/ADC_Prog.c: 54:  ADCON0|= ((uint
      +                          32)1<<1);
  3077   00ECDE  82C2               	bsf	194,1,c	;volatile
  3078   00ECE0                     l2202:
  3079   00ECE0  CFC2 F003          	movff	4034,??_ADC_u16GetChannelReading	;volatile
  3080   00ECE4  90D8               	bcf	status,0,c
  3081   00ECE6  3203               	rrcf	??_ADC_u16GetChannelReading^0,f,c
  3082   00ECE8  B003               	btfsc	??_ADC_u16GetChannelReading^0,0,c
  3083   00ECEA  EF79  F076         	goto	u2521
  3084   00ECEE  EF7B  F076         	goto	u2520
  3085   00ECF2                     u2521:
  3086   00ECF2  EF70  F076         	goto	l2202
  3087   00ECF6                     u2520:
  3088   00ECF6                     
  3089                           ;E:/MVM_Medical_Vending_Machine/MPLAB_FrameWork/03_MCAL/ADC_Prog.c: 65:  if (1){ u16Read
      +                          ingReturn= (ADRESH<<8) +ADRESL ;}
  3090   00ECF6  0E41               	movlw	65
  3091   00ECF8  6E03               	movwf	??_ADC_u16GetChannelReading^0,c
  3092   00ECFA  0EEE               	movlw	238
  3093   00ECFC                     u3287:
  3094   00ECFC  2EE8               	decfsz	wreg,f,c
  3095   00ECFE  D7FE               	bra	u3287
  3096   00ED00  2E03               	decfsz	??_ADC_u16GetChannelReading^0,f,c
  3097   00ED02  D7FC               	bra	u3287
  3098   00ED04  D000               	nop2	
  3099   00ED06  50C4               	movf	196,w,c	;volatile
  3100   00ED08  6E04               	movwf	(??_ADC_u16GetChannelReading+1)^0,c
  3101   00ED0A  6A03               	clrf	??_ADC_u16GetChannelReading^0,c
  3102   00ED0C  50C3               	movf	195,w,c	;volatile
  3103   00ED0E  2403               	addwf	??_ADC_u16GetChannelReading^0,w,c
  3104   00ED10  6E06               	movwf	ADC_u16GetChannelReading@u16ReadingReturn^0,c
  3105   00ED12  0E00               	movlw	0
  3106   00ED14  2004               	addwfc	(??_ADC_u16GetChannelReading+1)^0,w,c
  3107   00ED16  6E07               	movwf	(ADC_u16GetChannelReading@u16ReadingReturn+1)^0,c
  3108   00ED18                     
  3109                           ;E:/MVM_Medical_Vending_Machine/MPLAB_FrameWork/03_MCAL/ADC_Prog.c: 68:     return u16Re
      +                          adingReturn;
  3110   00ED18  C006  F001         	movff	ADC_u16GetChannelReading@u16ReadingReturn,?_ADC_u16GetChannelReading
  3111   00ED1C  C007  F002         	movff	ADC_u16GetChannelReading@u16ReadingReturn+1,?_ADC_u16GetChannelReading+1
  3112   00ED20  0012               	return		;funcret
  3113   00ED22                     __end_of_ADC_u16GetChannelReading:
  3114                           	callstack 0
  3115                           
  3116 ;; *************** function _ADC_VoidInit *****************
  3117 ;; Defined at:
  3118 ;;		line 18 in file "E:/MVM_Medical_Vending_Machine/MPLAB_FrameWork/03_MCAL/ADC_Prog.c"
  3119 ;; Parameters:    Size  Location     Type
  3120 ;;		None
  3121 ;; Auto vars:     Size  Location     Type
  3122 ;;		None
  3123 ;; Return value:  Size  Location     Type
  3124 ;;                  1    wreg      void 
  3125 ;; Registers used:
  3126 ;;		wreg, status,2, status,0
  3127 ;; Tracked objects:
  3128 ;;		On entry : 0/0
  3129 ;;		On exit  : 0/0
  3130 ;;		Unchanged: 0/0
  3131 ;; Data sizes:     COMRAM   BANK0   BANK1   BANK2   BANK3   BANK4   BANK5   BANK6   BANK7   BANK8   BANK9  BANK10  BANK1
      +1  BANK12  BANK13  BANK14  BANK15
  3132 ;;      Params:         0       0       0       0       0       0       0       0       0       0       0       0       
      +0       0       0       0       0
  3133 ;;      Locals:         0       0       0       0       0       0       0       0       0       0       0       0       
      +0       0       0       0       0
  3134 ;;      Temps:          0       0       0       0       0       0       0       0       0       0       0       0       
      +0       0       0       0       0
  3135 ;;      Totals:         0       0       0       0       0       0       0       0       0       0       0       0       
      +0       0       0       0       0
  3136 ;;Total ram usage:        0 bytes
  3137 ;; Hardware stack levels used: 1
  3138 ;; This function calls:
  3139 ;;		Nothing
  3140 ;; This function is called by:
  3141 ;;		_main
  3142 ;; This function uses a non-reentrant model
  3143 ;;
  3144                           
  3145                           	psect	text10
  3146   00EC76                     __ptext10:
  3147                           	callstack 0
  3148   00EC76                     _ADC_VoidInit:
  3149                           	callstack 30
  3150   00EC76                     
  3151                           ;E:/MVM_Medical_Vending_Machine/MPLAB_FrameWork/03_MCAL/ADC_Prog.c: 21:     ADCON1 = (15
      +                          - 1) & 0x0f ;
  3152   00EC76  0E0E               	movlw	14
  3153   00EC78  6EC1               	movwf	193,c	;volatile
  3154   00EC7A  98C1               	bcf	193,4,c	;volatile
  3155   00EC7C  9AC1               	bcf	193,5,c	;volatile
  3156   00EC7E                     
  3157                           ;E:/MVM_Medical_Vending_Machine/MPLAB_FrameWork/03_MCAL/ADC_Prog.c: 29:     ADCON2=((ADC
      +                          ON2 & ~((uint32)0xF<<0))|(Prescaler_64<<0));
  3158   00EC7E  50C0               	movf	192,w,c	;volatile
  3159   00EC80  0BF0               	andlw	240
  3160   00EC82  0906               	iorlw	6
  3161   00EC84  6EC0               	movwf	192,c	;volatile
  3162   00EC86                     
  3163                           ;E:/MVM_Medical_Vending_Machine/MPLAB_FrameWork/03_MCAL/ADC_Prog.c: 32:     ADCON2|= ((u
      +                          int32)1<<3);
  3164   00EC86  86C0               	bsf	192,3,c	;volatile
  3165   00EC88                     
  3166                           ;E:/MVM_Medical_Vending_Machine/MPLAB_FrameWork/03_MCAL/ADC_Prog.c: 33:     ADCON2|= ((u
      +                          int32)1<<4);
  3167   00EC88  88C0               	bsf	192,4,c	;volatile
  3168   00EC8A                     
  3169                           ;E:/MVM_Medical_Vending_Machine/MPLAB_FrameWork/03_MCAL/ADC_Prog.c: 34:  ADCON2|= ((uint
      +                          32)1<<5);
  3170   00EC8A  8AC0               	bsf	192,5,c	;volatile
  3171                           
  3172                           ;E:/MVM_Medical_Vending_Machine/MPLAB_FrameWork/03_MCAL/ADC_Prog.c: 37:     ADCON2=((ADC
      +                          ON2 & ~((uint32)1<<7))|((uint32)1<<7));
  3173   00EC8C  50C0               	movf	192,w,c	;volatile
  3174   00EC8E  0B7F               	andlw	127
  3175   00EC90  0980               	iorlw	128
  3176   00EC92  6EC0               	movwf	192,c	;volatile
  3177   00EC94                     
  3178                           ;E:/MVM_Medical_Vending_Machine/MPLAB_FrameWork/03_MCAL/ADC_Prog.c: 40:  ADCON0|= ((uint
      +                          32)1<<0);
  3179   00EC94  80C2               	bsf	194,0,c	;volatile
  3180   00EC96  0012               	return		;funcret
  3181   00EC98                     __end_of_ADC_VoidInit:
  3182                           	callstack 0
  3183   000000                     
  3184                           	psect	rparam
  3185   000000                     
  3186                           	psect	idloc
  3187                           
  3188                           ;Config register IDLOC0 @ 0x200000
  3189                           ;	unspecified, using default values
  3190   200000                     	org	2097152
  3191   200000  FF                 	db	255
  3192                           
  3193                           ;Config register IDLOC1 @ 0x200001
  3194                           ;	unspecified, using default values
  3195   200001                     	org	2097153
  3196   200001  FF                 	db	255
  3197                           
  3198                           ;Config register IDLOC2 @ 0x200002
  3199                           ;	unspecified, using default values
  3200   200002                     	org	2097154
  3201   200002  FF                 	db	255
  3202                           
  3203                           ;Config register IDLOC3 @ 0x200003
  3204                           ;	unspecified, using default values
  3205   200003                     	org	2097155
  3206   200003  FF                 	db	255
  3207                           
  3208                           ;Config register IDLOC4 @ 0x200004
  3209                           ;	unspecified, using default values
  3210   200004                     	org	2097156
  3211   200004  FF                 	db	255
  3212                           
  3213                           ;Config register IDLOC5 @ 0x200005
  3214                           ;	unspecified, using default values
  3215   200005                     	org	2097157
  3216   200005  FF                 	db	255
  3217                           
  3218                           ;Config register IDLOC6 @ 0x200006
  3219                           ;	unspecified, using default values
  3220   200006                     	org	2097158
  3221   200006  FF                 	db	255
  3222                           
  3223                           ;Config register IDLOC7 @ 0x200007
  3224                           ;	unspecified, using default values
  3225   200007                     	org	2097159
  3226   200007  FF                 	db	255
  3227                           
  3228                           	psect	config
  3229                           
  3230                           ; Padding undefined space
  3231   300000                     	org	3145728
  3232   300000  FF                 	db	255
  3233                           
  3234                           ;Config register CONFIG1H @ 0x300001
  3235                           ;	Oscillator Selection bits
  3236                           ;	OSC = HS, HS oscillator
  3237                           ;	Fail-Safe Clock Monitor Enable bit
  3238                           ;	FCMEN = OFF, Fail-Safe Clock Monitor disabled
  3239                           ;	Internal/External Oscillator Switchover bit
  3240                           ;	IESO = OFF, Oscillator Switchover mode disabled
  3241   300001                     	org	3145729
  3242   300001  02                 	db	2
  3243                           
  3244                           ;Config register CONFIG2L @ 0x300002
  3245                           ;	Power-up Timer Enable bit
  3246                           ;	PWRT = OFF, PWRT disabled
  3247                           ;	Brown-out Reset Enable bits
  3248                           ;	BOREN = SBORDIS, Brown-out Reset enabled in hardware only (SBOREN is disabled)
  3249                           ;	Brown Out Reset Voltage bits
  3250                           ;	BORV = 3, Minimum setting
  3251   300002                     	org	3145730
  3252   300002  1F                 	db	31
  3253                           
  3254                           ;Config register CONFIG2H @ 0x300003
  3255                           ;	Watchdog Timer Enable bit
  3256                           ;	WDT = OFF, WDT disabled (control is placed on the SWDTEN bit)
  3257                           ;	Watchdog Timer Postscale Select bits
  3258                           ;	WDTPS = 32768, 1:32768
  3259   300003                     	org	3145731
  3260   300003  1E                 	db	30
  3261                           
  3262                           ; Padding undefined space
  3263   300004                     	org	3145732
  3264   300004  FF                 	db	255
  3265                           
  3266                           ;Config register CONFIG3H @ 0x300005
  3267                           ;	CCP2 MUX bit
  3268                           ;	CCP2MX = PORTBE, CCP2 input/output is multiplexed with RB3
  3269                           ;	PORTB A/D Enable bit
  3270                           ;	PBADEN = OFF, PORTB<4:0> pins are configured as digital I/O on Reset
  3271                           ;	Low-Power Timer1 Oscillator Enable bit
  3272                           ;	LPT1OSC = OFF, Timer1 configured for higher power operation
  3273                           ;	MCLR Pin Enable bit
  3274                           ;	MCLRE = ON, MCLR pin enabled; RE3 input pin disabled
  3275   300005                     	org	3145733
  3276   300005  80                 	db	128
  3277                           
  3278                           ;Config register CONFIG4L @ 0x300006
  3279                           ;	Stack Full/Underflow Reset Enable bit
  3280                           ;	STVREN = ON, Stack full/underflow will cause Reset
  3281                           ;	Single-Supply ICSP Enable bit
  3282                           ;	LVP = OFF, Single-Supply ICSP disabled
  3283                           ;	Extended Instruction Set Enable bit
  3284                           ;	XINST = OFF, Instruction set extension and Indexed Addressing mode disabled (Legacy mo
      +                          de)
  3285                           ;	Background Debugger Enable bit
  3286                           ;	DEBUG = 0x1, unprogrammed default
  3287   300006                     	org	3145734
  3288   300006  81                 	db	129
  3289                           
  3290                           ; Padding undefined space
  3291   300007                     	org	3145735
  3292   300007  FF                 	db	255
  3293                           
  3294                           ;Config register CONFIG5L @ 0x300008
  3295                           ;	Code Protection bit
  3296                           ;	CP0 = OFF, Block 0 (000800-003FFFh) not code-protected
  3297                           ;	Code Protection bit
  3298                           ;	CP1 = OFF, Block 1 (004000-007FFFh) not code-protected
  3299                           ;	Code Protection bit
  3300                           ;	CP2 = OFF, Block 2 (008000-00BFFFh) not code-protected
  3301                           ;	Code Protection bit
  3302                           ;	CP3 = OFF, Block 3 (00C000-00FFFFh) not code-protected
  3303   300008                     	org	3145736
  3304   300008  0F                 	db	15
  3305                           
  3306                           ;Config register CONFIG5H @ 0x300009
  3307                           ;	Boot Block Code Protection bit
  3308                           ;	CPB = OFF, Boot block (000000-0007FFh) not code-protected
  3309                           ;	Data EEPROM Code Protection bit
  3310                           ;	CPD = OFF, Data EEPROM not code-protected
  3311   300009                     	org	3145737
  3312   300009  C0                 	db	192
  3313                           
  3314                           ;Config register CONFIG6L @ 0x30000A
  3315                           ;	Write Protection bit
  3316                           ;	WRT0 = OFF, Block 0 (000800-003FFFh) not write-protected
  3317                           ;	Write Protection bit
  3318                           ;	WRT1 = OFF, Block 1 (004000-007FFFh) not write-protected
  3319                           ;	Write Protection bit
  3320                           ;	WRT2 = OFF, Block 2 (008000-00BFFFh) not write-protected
  3321                           ;	Write Protection bit
  3322                           ;	WRT3 = OFF, Block 3 (00C000-00FFFFh) not write-protected
  3323   30000A                     	org	3145738
  3324   30000A  0F                 	db	15
  3325                           
  3326                           ;Config register CONFIG6H @ 0x30000B
  3327                           ;	Configuration Register Write Protection bit
  3328                           ;	WRTC = OFF, Configuration registers (300000-3000FFh) not write-protected
  3329                           ;	Boot Block Write Protection bit
  3330                           ;	WRTB = OFF, Boot Block (000000-0007FFh) not write-protected
  3331                           ;	Data EEPROM Write Protection bit
  3332                           ;	WRTD = OFF, Data EEPROM not write-protected
  3333   30000B                     	org	3145739
  3334   30000B  E0                 	db	224
  3335                           
  3336                           ;Config register CONFIG7L @ 0x30000C
  3337                           ;	Table Read Protection bit
  3338                           ;	EBTR0 = OFF, Block 0 (000800-003FFFh) not protected from table reads executed in other
      +                           blocks
  3339                           ;	Table Read Protection bit
  3340                           ;	EBTR1 = OFF, Block 1 (004000-007FFFh) not protected from table reads executed in other
      +                           blocks
  3341                           ;	Table Read Protection bit
  3342                           ;	EBTR2 = OFF, Block 2 (008000-00BFFFh) not protected from table reads executed in other
      +                           blocks
  3343                           ;	Table Read Protection bit
  3344                           ;	EBTR3 = OFF, Block 3 (00C000-00FFFFh) not protected from table reads executed in other
      +                           blocks
  3345   30000C                     	org	3145740
  3346   30000C  0F                 	db	15
  3347                           
  3348                           ;Config register CONFIG7H @ 0x30000D
  3349                           ;	Boot Block Table Read Protection bit
  3350                           ;	EBTRB = OFF, Boot Block (000000-0007FFh) not protected from table reads executed in ot
      +                          her blocks
  3351   30000D                     	org	3145741
  3352   30000D  40                 	db	64
  3353                           tosu	equ	0xFFF
  3354                           tosh	equ	0xFFE
  3355                           tosl	equ	0xFFD
  3356                           stkptr	equ	0xFFC
  3357                           pclatu	equ	0xFFB
  3358                           pclath	equ	0xFFA
  3359                           pcl	equ	0xFF9
  3360                           tblptru	equ	0xFF8
  3361                           tblptrh	equ	0xFF7
  3362                           tblptrl	equ	0xFF6
  3363                           tablat	equ	0xFF5
  3364                           prodh	equ	0xFF4
  3365                           prodl	equ	0xFF3
  3366                           indf0	equ	0xFEF
  3367                           postinc0	equ	0xFEE
  3368                           postdec0	equ	0xFED
  3369                           preinc0	equ	0xFEC
  3370                           plusw0	equ	0xFEB
  3371                           fsr0h	equ	0xFEA
  3372                           fsr0l	equ	0xFE9
  3373                           wreg	equ	0xFE8
  3374                           indf1	equ	0xFE7
  3375                           postinc1	equ	0xFE6
  3376                           postdec1	equ	0xFE5
  3377                           preinc1	equ	0xFE4
  3378                           plusw1	equ	0xFE3
  3379                           fsr1h	equ	0xFE2
  3380                           fsr1l	equ	0xFE1
  3381                           bsr	equ	0xFE0
  3382                           indf2	equ	0xFDF
  3383                           postinc2	equ	0xFDE
  3384                           postdec2	equ	0xFDD
  3385                           preinc2	equ	0xFDC
  3386                           plusw2	equ	0xFDB
  3387                           fsr2h	equ	0xFDA
  3388                           fsr2l	equ	0xFD9
  3389                           status	equ	0xFD8

Data Sizes:
    Strings     0
    Constant    0
    Data        0
    BSS         40
    Persistent  0
    Stack       0

Auto Spaces:
    Space          Size  Autos    Used
    COMRAM          127     84     124
    BANK0           128      0       0
    BANK1           256      0       0
    BANK2           256      0       0
    BANK3           256      0       0
    BANK4           256      0       0
    BANK5           256      0       0
    BANK6           256      0       0
    BANK7           256      0       0
    BANK8           256      0       0
    BANK9           256      0       0
    BANK10          256      0       0
    BANK11          256      0       0
    BANK12          256      0       0
    BANK13          256      0       0
    BANK14          256      0       0
    BANK15          128      0       0

Pointer List with Targets:

    None.

Critical Paths under _main in COMRAM

    _main->___fltol
    ___xxtofl->___wmul
    ___fltol->___flmul
    ___flmul->___fldiv
    ___fldiv->___xxtofl

Critical Paths under _main in BANK0

    None.

Critical Paths under _main in BANK1

    None.

Critical Paths under _main in BANK2

    None.

Critical Paths under _main in BANK3

    None.

Critical Paths under _main in BANK4

    None.

Critical Paths under _main in BANK5

    None.

Critical Paths under _main in BANK6

    None.

Critical Paths under _main in BANK7

    None.

Critical Paths under _main in BANK8

    None.

Critical Paths under _main in BANK9

    None.

Critical Paths under _main in BANK10

    None.

Critical Paths under _main in BANK11

    None.

Critical Paths under _main in BANK12

    None.

Critical Paths under _main in BANK13

    None.

Critical Paths under _main in BANK14

    None.

Critical Paths under _main in BANK15

    None.

Call Graph Tables:

 ---------------------------------------------------------------------------------
 (Depth) Function   	        Calls       Base Space   Used Autos Params    Refs
 ---------------------------------------------------------------------------------
 (0) _main                                                 4     4      0    6791
                                             80 COMRAM     4     4      0
                       _ADC_VoidInit
           _ADC_u16GetChannelReading
               _DIO_VidDirPortNibble
        _DIO_VidSetHalfPortDirection
                 _DIO_VidSetPinValue
                            ___fldiv
                            ___flmul
                            ___fltol
                             ___wmul
                           ___xxtofl
 ---------------------------------------------------------------------------------
 (1) ___xxtofl                                            14    10      4     398
                                              6 COMRAM    14    10      4
                             ___wmul (ARG)
 ---------------------------------------------------------------------------------
 (1) ___wmul                                               6     2      4     311
                                              0 COMRAM     6     2      4
 ---------------------------------------------------------------------------------
 (1) ___fltol                                             10     6      4     305
                                             70 COMRAM    10     6      4
                            ___fldiv (ARG)
                            ___flmul (ARG)
                             ___wmul (ARG)
                           ___xxtofl (ARG)
 ---------------------------------------------------------------------------------
 (1) ___flmul                                             25    17      8    1744
                                             45 COMRAM    25    17      8
                            ___fldiv (ARG)
                             ___wmul (ARG)
                           ___xxtofl (ARG)
 ---------------------------------------------------------------------------------
 (1) ___fldiv                                             25    17      8    1399
                                             20 COMRAM    25    17      8
                             ___wmul (ARG)
                           ___xxtofl (ARG)
 ---------------------------------------------------------------------------------
 (1) _DIO_VidSetPinValue                                   5     3      2    1112
                                              0 COMRAM     5     3      2
 ---------------------------------------------------------------------------------
 (1) _DIO_VidSetHalfPortDirection                         11     9      2     704
                                              0 COMRAM    11     9      2
 ---------------------------------------------------------------------------------
 (1) _DIO_VidDirPortNibble                                 9     7      2     726
                                              0 COMRAM     9     7      2
 ---------------------------------------------------------------------------------
 (1) _ADC_u16GetChannelReading                             7     5      2      46
                                              0 COMRAM     7     5      2
 ---------------------------------------------------------------------------------
 (1) _ADC_VoidInit                                         0     0      0       0
 ---------------------------------------------------------------------------------
 Estimated maximum stack depth 1
 ---------------------------------------------------------------------------------

 Call Graph Graphs:

 _main (ROOT)
   _ADC_VoidInit
   _ADC_u16GetChannelReading
   _DIO_VidDirPortNibble
   _DIO_VidSetHalfPortDirection
   _DIO_VidSetPinValue
   ___fldiv
     ___wmul (ARG)
     ___xxtofl (ARG)
       ___wmul (ARG)
   ___flmul
     ___fldiv (ARG)
     ___wmul (ARG)
     ___xxtofl (ARG)
   ___fltol
     ___fldiv (ARG)
     ___flmul (ARG)
     ___wmul (ARG)
     ___xxtofl (ARG)
   ___wmul
   ___xxtofl

 Address spaces:
Name               Size   Autos  Total    Cost      Usage
BIGRAM             F7F      0       0      40        0.0%
EEDATA             400      0       0       0        0.0%
BITBANK14          100      0       0      32        0.0%
BANK14             100      0       0      33        0.0%
BITBANK13          100      0       0      30        0.0%
BANK13             100      0       0      31        0.0%
BITBANK12          100      0       0      28        0.0%
BANK12             100      0       0      29        0.0%
BITBANK11          100      0       0      26        0.0%
BANK11             100      0       0      27        0.0%
BITBANK10          100      0       0      24        0.0%
BANK10             100      0       0      25        0.0%
BITBANK9           100      0       0      22        0.0%
BANK9              100      0       0      23        0.0%
BITBANK8           100      0       0      20        0.0%
BANK8              100      0       0      21        0.0%
BITBANK7           100      0       0      18        0.0%
BANK7              100      0       0      19        0.0%
BITBANK6           100      0       0      16        0.0%
BANK6              100      0       0      17        0.0%
BITBANK5           100      0       0      14        0.0%
BANK5              100      0       0      15        0.0%
BITBANK4           100      0       0      12        0.0%
BANK4              100      0       0      13        0.0%
BITBANK3           100      0       0      10        0.0%
BANK3              100      0       0      11        0.0%
BITBANK2           100      0       0       8        0.0%
BANK2              100      0       0       9        0.0%
BITBANK1           100      0       0       6        0.0%
BANK1              100      0       0       7        0.0%
BITBANK15           80      0       0      34        0.0%
BANK15              80      0       0      35        0.0%
BITBANK0            80      0       0       4        0.0%
BANK0               80      0       0       5        0.0%
BITCOMRAM           7F      0       0       0        0.0%
COMRAM              7F     54      7C       1       97.6%
BITBIGSFRhhh        3B      0       0      36        0.0%
BITBIGSFRhl         29      0       0      37        0.0%
BITBIGSFRl           D      0       0      38        0.0%
BIGSFR               0      0       0     200        0.0%
BITSFR               0      0       0     200        0.0%
SFR                  0      0       0     200        0.0%
STACK                0      0       0       2        0.0%
NULL                 0      0       0       0        0.0%
ABS                  0      0      7C      39        0.0%
DATA                 0      0      7C       3        0.0%
CODE                 0      0       0       0        0.0%


Microchip Technology PIC18 Macro Assembler V2.40 build 20220703182018 
Symbol Table                                                                                   Sat Nov 05 14:16:46 2022

                            ___fldiv@aexp 002D                              ___fldiv@bexp 002C  
     __end_of_DIO_VidSetHalfPortDirection F83C               _DIO_VidSetHalfPortDirection F5A6  
                            ___fldiv@sign 0025       DIO_VidSetHalfPortDirection@u8PortId 000A  
                                      l25 EE48                                        l95 F314  
                     ___wmul@multiplicand 0003                                       l106 F314  
                                     l203 F7B0      DIO_VidSetHalfPortDirection@u8PortDir 0002  
                                     l209 F83A                                       l253 F392  
                                     l263 F456                                       l272 F52A  
                                     l184 F618                                       l258 F3F4  
                                     l194 F6DC                                       l356 EC96  
                                     l364 ED20                                       l268 F4B8  
                                     l189 F67A                                       l278 F5A4  
                                     l199 F73E                                       l367 ECBC  
                                     l664 EE26                                       l951 FA34  
                                     l960 FA7A                                       l962 FAF2  
                                     l954 F9F8                                       l963 FAE0  
                                     l949 FBD4                                       l981 FC9A  
                                     l990 FF08                                       l991 FEF6  
                                     l985 FFFE                                       l988 FE90  
                                     l998 FFC0                                       wreg 000FE8  
                            ___flmul@aexp 003F                              ___flmul@bexp 0040  
                            ___flmul@sign 003A                              ___flmul@temp 0045  
                            ___flmul@prod 0041                              ___fltol@exp1 0050  
                                    l1022 EF9E                                      l1200 EC7E  
                                    l1025 F0FA                                      l1202 EC86  
                                    l1204 EC88                                      l2100 F4D8  
                                    l1036 F092                                      l1029 F036  
                                    l1206 EC8A                                      l2110 F52E  
                                    l1208 EC94                                      l2200 ECDE  
                                    l2104 F4FA                                      l2112 F570  
                                    l2120 F5A8                                      l2210 ED18  
                                    l2202 ECE0                                      l2106 F50A  
                                    l2050 F340                                      l2114 F572  
                                    l2130 F5F8                                      l2122 F5B6  
                                    l2204 ECF6                                      l2060 F392  
                                    l2044 F318                                      l2140 F64A  
                                    l2124 F5C6                                      l2300 F8EE  
                                    l1190 EC76                                      l2206 ED06  
                                    l2062 F3A2                                      l2054 F362  
                                    l2046 F328                                      l2142 F65A  
                                    l2134 F618                                      l2230 F1B2  
                                    l2222 F132                                      l2214 F0FE  
                                    l2310 F92E                                      l2302 F8F0  
                                    l2080 F436                                      l2072 F3F4  
                                    l2056 F372                                      l2048 F330  
                                    l2160 F6EC                                      l2152 F6AC  
                                    l2136 F628                                      l2128 F5E8  
                                    l2240 F228                                      l2224 F152  
                                    l2216 F10E                                      l2320 F95E  
                                    l2312 F936                                      l2304 F8F8  
                                    l1194 EC7A                                      l2090 F488  
                                    l2074 F404                                      l2066 F3C4  
                                    l2170 F73E                                      l2154 F6BC  
                                    l2146 F67A                                      l2242 F24A  
                                    l2226 F172                                      l2234 F1D2  
                                    l2218 F11E                                      l2330 F99C  
                                    l2322 F95E                                      l2314 F93A  
                                    l2306 F908                                      l2410 FBF0  
                                    l2092 F498                                      l2084 F456  
                                    l2068 F3D4                                      l2180 F790  
                                    l2172 F74E                                      l2164 F70E  
                                    l2148 F68A                                      l2244 F26C  
                                    l2252 F2D2                                      l2228 F192  
                                    l2236 F214                                      l2340 F9E8  
                                    l2332 F9AC                                      l2308 F91E  
                                    l2500 FEC0                                      l2420 FC28  
                                    l2412 FBF2                                      l1198 EC7C  
                                    l2086 F466                                      l2078 F426  
                                    l2174 F75E                                      l2166 F71E  
                                    l2158 F6DC                                      l2246 F28E  
                                    l2350 FA32                                      l2342 F9F6  
                                    l2334 F9BC                                      l2326 F972  
                                    l2318 F94E                                      l2270 F848  
                                    l2510 FF32                                      l2502 FEEE  
                                    l2430 FC54                                      l2422 FC38  
                                    l2414 FC02                                      l2406 FBD6  
                                    l2262 EC98                                      l2096 F4B8  
                                    l2184 F7B4                                      l2248 F2B0  
                                    l2360 FA78                                      l2352 FA44  
                                    l2344 FA02                                      l2336 F9C4  
                                    l2328 F98C                                      l2280 F888  
                                    l2272 F856                                      l2520 FFA8  
                                    l2512 FF5C                                      l2440 FCAA  
                                    l2432 FC64                                      l2424 FC3E  
                                    l2416 FC12                                      l2408 FBE2  
                                    l2264 ECB4                                      l2600 F020  
                                    l2194 ECC0                                      l2098 F4C8  
                                    l2178 F780                                      l2186 F7F6  
                                    l2370 FAD8                                      l2354 FA5A  
                                    l2362 FA8A                                      l2346 FA20  
                                    l2338 F9D4                                      l2290 F8AE  
                                    l2282 F88A                                      l2274 F858  
                                    l2522 FFC4                                      l2530 FFEA  
                                    l2506 FF18                                      l2514 FF60  
                                    l2450 FCE4                                      l2442 FCBA  
                                    l2434 FC74                                      l2426 FC44  
                                    l2418 FC22                                      l2610 F0A0  
                                    l2602 F02C                                      l2196 ECC4  
                                    l2188 F7F8                                      l2380 FB46  
                                    l2364 FA98                                      l2356 FA60  
                                    l2348 FA22                                      l2292 F8BC  
                                    l2276 F868                                      l2284 F892  
                                    l2268 F83C                                      l2532 FFEE  
                                    l2524 FFD4                                      l2516 FF7A  
                                    l2508 FF24                                      l2460 FD36  
                                    l2452 FCFA                                      l2436 FC84  
                                    l2428 FC52                                      l2620 F0E8  
                                    l2612 F0A2                                      l2604 F068  
                                    l2198 ECCE                                      l2390 FBB0  
                                    l2374 FB02                                      l2382 FB4A  
                                    l2366 FA9C                                      l2358 FA6A  
                                    l2294 F8BE                                      l2286 F8A2  
                                    l2278 F878                                      l2526 FFE2  
                                    l2518 FF8E                                      l2470 FD7C  
                                    l2462 FD44                                      l2454 FD06  
                                    l2446 FCCE                                      l2438 FC8A  
                                    l2550 ED8C                                      l2542 ED4C  
                                    l2622 F0EA                                      l2614 F0A6  
                                    l2606 F074                                      l2630 EE44  
                                    l2392 FBB4                                      l2384 FB64  
                                    l2376 FB0E                                      l2368 FAAA  
                                    l2296 F8CE                                      l2288 F8A8  
                                    l2528 FFE4                                      l2480 FDEA  
                                    l2472 FD96                                      l2464 FD50  
                                    l2456 FD1E                                      l2448 FCDA  
                                    l2560 EDBC                                      l2552 ED9A  
                                    l2544 ED76                                      l2536 ED22  
                                    l2616 F0CA                                      l2608 F082  
                                    l2640 EF20                                      l2632 EEE0  
                                    l2394 FBC2                                      l2386 FB7A  
                                    l2378 FB1C                                      l2298 F8DE  
                                    l2490 FE80                                      l2482 FE14  
                                    l2474 FDA6                                      l2466 FD60  
                                    l2458 FD2A                                      l2570 EDE6  
                                    l2562 EDC6                                      l2546 ED78  
                                    l2538 ED38                                      l2618 F0DA  
                                    l2642 EF32                                      l2634 EEEE  
                                    l2626 EE28                                      l2660 F1E6  
                                    l2396 FBC8                                      l2388 FB94  
                                    l2492 FE8E                                      l2484 FE4A  
                                    l2476 FDC2                                      l2468 FD6C  
                                    l2572 EDF6                                      l2548 ED88  
                                    l2580 EF4A                                      l2636 EEFC  
                                    l2628 EE36                                      l2662 F2E6  
                                    l2398 FBCA                                      l2494 FEA0  
                                    l2486 FE58                                      l2478 FDCE  
                                    l2574 EE06                                      l2558 EDB2  
                                    l2582 EF5A                                      l2638 EF0A  
                                    l2664 F7C8                                      l2496 FEAE  
                                    l2488 FE76                                      l2576 EE16  
                                    l2568 EDDA                                      l2592 EFD8  
                                    l2584 EF68                                      l2666 F542  
                                    l2498 FEB2                                      l2594 EFE0  
                                    l2586 EFAE                                      l2596 EFEC  
                                    l2588 EFC4                                      l2598 F01E  
                                    u2100 F372                                      u2101 F36E  
                                    u2200 F466                                      u2120 F3A2  
                                    u3000 FEAE                                      u2201 F462  
                                    u2121 F39E                                      u3001 FEAA  
                                    u2114 F384                                      u3010 FEC0  
                                    u2115 F380                                      u3011 FEBC  
                                    u2220 F498                                      u2140 F3D4  
                                    u2300 F5C6                                      u3020 FEEE  
                                    u3100 ED6C                                      u2221 F494  
                                    u2141 F3D0                                      u2301 F5C2  
                                    u3021 FEEA                                      u2214 F478  
                                    u2134 F3B4                                      u2070 F328  
                                    u3030 FF04                                      u3110 ED9A  
                                    u2215 F474                                      u2135 F3B0  
                                    u2071 F324                                      u3031 FF00  
                                    u3111 ED96                                      u2240 F4C8  
                                    u2160 F404                                      u2080 F340  
                                    u2400 F6BC                                      u2320 F5F8  
                                    u3040 FF18                                      u3120 EDAE  
                                    u3200 F064                                      u2241 F4C4  
                                    u2161 F400                                      u2081 F33C  
                                    u2401 F6B8                                      u2321 F5F4  
                                    u3041 FF14                                      u3121 EDAA  
                                    u3105 ED62                                      u3201 F060  
                                    u2250 F4D8                                      u2234 F4AA  
                                    u2154 F3E6                                      u2314 F5D8  
                                    u3050 FF32                                      u3130 EDD6  
                                    u3210 F082                                      u2251 F4D4  
                                    u2235 F4A6                                      u2155 F3E2  
                                    u2315 F5D4                                      u3051 FF2E  
                                    u3131 EDD2                                      u3211 F07E  
                                    u2180 F436                                      u2420 F6EC  
                                    u2340 F628                                      u3060 FF7A  
                                    u3140 EDF6                                      u3220 F092  
                                    u2181 F432                                      u2421 F6E8  
                                    u2341 F624                                      u3061 FF76  
                                    u3141 EDF2                                      u3221 F08E  
                                    u2270 F50A                                      u2174 F416  
                                    u2094 F352                                      u2510 F83A  
                                    u2414 F6CE                                      u2334 F60A  
                                    u3070 FFA8                                      u3150 EE06  
                                    u3230 F0A0                                      u2271 F506  
                                    u2175 F412                                      u2095 F34E  
                                    u2511 F836                                      u2415 F6CA  
                                    u2335 F606                                      u3071 FFA4  
                                    u3151 EE02                                      u3231 F09C  
                                    u2520 ECF6                                      u2264 F4EA  
                                    u2504 F7A2                                      u2440 F71E  
                                    u2360 F65A                                      u3080 FFE2  
                                    u3240 F0DA                                      u3160 EF5A  
                                    u2521 ECF2                                      u2265 F4E6  
                                    u2505 F79E                                      u2441 F71A  
                                    u2361 F656                                      u3081 FFDE  
                                    u3241 F0D6                                      u3161 EF56  
                                    u2290 F5A4                                      u2194 F448  
                                    u2434 F6FE                                      u2354 F63A  
                                    u2610 F224                                      u2530 F10E  
                                    u3090 ED38                                      u3250 F0E8  
                                    u3170 EF68                                      u2291 F5A0  
                                    u2195 F444                                      u2435 F6FA  
                                    u2355 F636                                      u2611 F220  
                                    u2531 F10A                                      u3091 ED34  
                                    u3251 F0E4                                      u3171 EF64  
                                    u2284 F51C                                      u2460 F74E  
                                    u2380 F68A                                      u2604 F1C4  
                                    u2540 F11E                                      u2700 F8BC  
                                    u3180 EFC4                                      u3260 EF20  
                                    u2285 F518                                      u2461 F74A  
                                    u2381 F686                                      u2605 F1C0  
                                    u2541 F11A                                      u2701 F8B8  
                                    u3181 EFC0                                      u3261 EF1C  
                                    u2470 F75E                                      u2454 F730  
                                    u2374 F66C                                      u2550 F12E  
                                    u2710 F8CE                                      u3190 F01A  
                                    u2471 F75A                                      u2455 F72C  
                                    u2375 F668                                      u2551 F12A  
                                    u2711 F8CA                                      u3191 F016  
                                    u2624 F23A                                      u2800 FA78  
                                    u2720 F8DE                                      u2625 F236  
                                    u2801 FA74                                      u2721 F8DA  
                                    u2490 F790                                      u2394 F69C  
                                    u2634 F25C                                      u2810 FA98  
                                    u2730 F91E                                      u2491 F78C  
                                    u2395 F698                                      u2635 F258  
                                    u2811 FA94                                      u2731 F91A  
                                    u2484 F770                                      u2644 F27E  
                                    u2564 F144                                      u2820 FAAA  
                                    u2740 F95E                                      u2900 FBF0  
                                    u3277 ECD4                                      u2485 F76C  
                                    u2645 F27A                                      u2565 F140  
                                    u2821 FAA6                                      u2741 F95A  
                                    u2901 FBEC                                      u2654 F2A0  
                                    u2574 F164                                      u2830 FAD8  
                                    u2750 F9D4                                      u2670 F856  
                                    u2910 FC02                                      u3287 ECFC  
                                    u2655 F29C                                      u2575 F160  
                                    u2831 FAD4                                      u2751 F9D0  
                                    u2671 F852                                      u2911 FBFE  
                                    u2664 F2C2                                      u2584 F184  
                                    u2840 FAEE                                      u2760 F9F6  
                                    u2680 F868                                      u2920 FC12  
                                    u2665 F2BE                                      u2585 F180  
                                    u2841 FAEA                                      u2761 F9F2  
                                    u2681 F864                                      u2921 FC0E  
                                    u2594 F1A4                                      u2850 FB02  
                                    u2770 FA20                                      u2690 F878  
                                    u2930 FC52                                      u2595 F1A0  
                                    u2851 FAFE                                      u2771 FA1C  
                                    u2691 F874                                      u2931 FC4E  
                                    u2860 FB1C                                      u2780 FA44  
                                    u2940 FC64                                      u2861 FB18  
                                    u2781 FA40                                      u2941 FC60  
                                    u2870 FB64                                      u2790 FA5A  
                                    u2950 FC74                                      u2871 FB60  
                                    u2791 FA56                                      u2951 FC70  
                                    u2880 FB94                                      u2960 FCAA  
                                    u2881 FB90                                      u2961 FCA6  
                                    u2890 FBC2                                      u2970 FCBA  
                                    u2891 FBBE                                      u2971 FCB6  
                                    u2980 FE34                                      u2990 FE8E  
                                    u2991 FE8A                                      u2985 FE2A  
                                    _main EE28                                      prodh 000FF4  
                                    prodl 000FF3                                      start 0000  
                         ___fldiv@new_exp 0026                              ___param_bank 000000  
                           ___fltol@sign1 004F                                     ?_main 0001  
                         __end_of___fldiv FBD6                           __end_of___flmul 0000  
                         __end_of___fltol EE28                                     _PORTA 000F80  
                                   _PORTB 000F81                                     _PORTC 000F82  
                                   _PORTD 000F83                                     _PORTE 000F84  
                                   _TRISA 000F92                                     _TRISB 000F93  
                                   _TRISC 000F94                                     _TRISD 000F95  
                                   _TRISE 000F96                                     status 000FD8  
                           main@adc_value 0051                           __initialization EC60  
                            __end_of_main EF48                                    ??_main 0051  
                           __activetblptr 000002                              _ADC_VoidInit EC76  
                                  _ADCON0 000FC2                                    _ADCON1 000FC1  
                                  _ADCON2 000FC0                                    _ADRESH 000FC4  
                                  _ADRESL 000FC3                          __end_of___xxtofl F0FC  
                                  ___wmul EC98                                 ??___fldiv 001D  
                               ??___flmul 0036                                 ??___fltol 004B  
                                  clear_0 EC66                                    isa$std 000001  
         ADC_u16GetChannelReading@Channel 0005    DIO_VidSetHalfPortDirection@u8PinIdCopy 000B  
                                  tblptru 000FF8                              ___xxtofl@arg 0011  
                            ___xxtofl@exp 0010                              ___xxtofl@val 0007  
ADC_u16GetChannelReading@u16ReadingReturn 0006                                __accesstop 0080  
                 __end_of__initialization EC6C                             ___rparam_used 000001  
                              ___fltol@f1 0047                            __pcstackCOMRAM 0001  
         DIO_VidDirPortNibble@u8PinIdCopy 0009                                   ?___wmul 0001  
           DIO_VidSetPinValue@u8PinIdCopy 0001                 ?_ADC_u16GetChannelReading 0001  
                               ?___xxtofl 0007                                   __Hparam 0000  
                                 __Lparam 0000                                   ___fldiv F83C  
                                 ___flmul FBD6                                   ___fltol ED22  
                                 __pcinit EC60                                   __ramtop 1000  
                                 __ptext0 EE28                                   __ptext1 EF48  
                                 __ptext2 EC98                                   __ptext3 ED22  
                                 __ptext4 FBD6                                   __ptext5 F83C  
                                 __ptext6 F0FC                                   __ptext7 F5A6  
                                 __ptext8 F316                                   __ptext9 ECBE  
                              ??___xxtofl 000B                      end_of_initialization EC6C  
                           __Lmediumconst 0000                                   postinc0 000FEE  
                           ___xxtofl@sign 000F                               ___fldiv@grs 0028  
                             ___fldiv@rem 0021                               ___flmul@grs 003B  
            ?_DIO_VidSetHalfPortDirection 0001                            __end_of___wmul ECBE  
                     start_initialization EC60              __end_of_DIO_VidDirPortNibble F5A6  
        __end_of_ADC_u16GetChannelReading ED22                                  ??___wmul 0005  
              __end_of_DIO_VidSetPinValue F316             ??_DIO_VidSetHalfPortDirection 0003  
                               ___fldiv@a 0019                                 ___fldiv@b 0015  
                               ___flmul@a 0032                                 ___flmul@b 002E  
                             __pbssCOMRAM 0055     DIO_VidSetHalfPortDirection@u8PortHalf 0001  
                                ?___fldiv 0015                                  ?___flmul 002E  
                                ?___fltol 0047               DIO_VidDirPortNibble@u8StPin 0001  
                           ?_ADC_VoidInit 0001            DIO_VidSetPinValue@u8PinValCopy 0002  
                          ___wmul@product 0005                  _ADC_u16GetChannelReading ECBE  
                          ??_ADC_VoidInit 0001                         ___wmul@multiplier 0001  
          DIO_VidSetPinValue@u8PortIdCopy 0005                      _DIO_VidDirPortNibble F316  
                                __Hrparam 0000                                  __Lrparam 0000  
                   ?_DIO_VidDirPortNibble 0001                                  ___xxtofl EF48  
                                __ptext10 EC76                                  isa$xinst 000000  
                                main@temp 0053                        _DIO_VidSetPinValue F0FC  
                     ?_DIO_VidSetPinValue 0001                      __end_of_ADC_VoidInit EC98  
           DIO_VidDirPortNibble@u8PortDir 0002                    ??_DIO_VidDirPortNibble 0003  
                    ??_DIO_VidSetPinValue 0003              DIO_VidDirPortNibble@u8PortId 0008  
                              _PORT_A_DEF 0075                                _PORT_B_DEF 006D  
                              _PORT_C_DEF 0065                                _PORT_D_DEF 005D  
                              _PORT_E_DEF 0055                ??_ADC_u16GetChannelReading 0003  
